******************************************************************************
            TI ARM Clang Linker Unix v1.3.1                    
******************************************************************************
>> Linked Mon Jun 20 12:49:10 2022

OUTPUT FILE NAME:   <sbl_uart_uniflash.release.out>
ENTRY POINT SYMBOL: "_vectors_sbl"  address: 70000000


MEMORY CONFIGURATION

         name            origin    length      used     unused   attr    fill
----------------------  --------  ---------  --------  --------  ----  --------
  R5F_VECS              00000000   00000040  00000000  00000040  RWIX
  R5F_TCMA              00000040   00007fc0  00000000  00007fc0  RWIX
  R5F_TCMB0             41010000   00008000  00000000  00008000  RWIX
  MSRAM_VECS            70000000   00000100  00000040  000000c0  RWIX
  MSRAM_0               70000100   0007ff00  00015140  0006adc0  RWIX
  MSRAM_1               70080000   00018000  00017a80  00000580  RWIX
  DDR                   80000000   00800000  00800000  00000000  RWIX


SEGMENT ALLOCATION MAP

run origin  load origin   length   init length attrs members
----------  ----------- ---------- ----------- ----- -------
70000000    70000000    00000040   00000040    r-x
  70000000    70000000    00000040   00000040    r-x .vectors
70000100    70000100    00010f90   00010f90    r-x
  70000100    70000100    00010050   00010050    r-x .text
  70010150    70010150    00000770   00000770    r-x .text.hwi
  700108c0    700108c0    00000460   00000460    r-x .text.cache
  70010d20    70010d20    00000240   00000240    r-x .text.mpu
  70010f60    70010f60    00000130   00000130    r-x .text.boot
70011090    70011090    00002690   00002690    rw-
  70011090    70011090    00002690   00002690    rw- .data
70013720    70013720    00001b20   00001b20    r--
  70013720    70013720    00001b20   00001b20    r-- .rodata
70080000    70080000    00016680   00000000    rw-
  70080000    70080000    0000a680   00000000    rw- .bss
  7008a680    7008a680    00008000   00000000    rw- .sysmem
  70092680    70092680    00004000   00000000    rw- .stack
70096680    70096680    00001400   00000000    r--
  70096680    70096680    00001000   00000000    r-- .irqstack
  70097680    70097680    00000100   00000000    r-- .fiqstack
  70097780    70097780    00000100   00000000    r-- .svcstack
  70097880    70097880    00000100   00000000    r-- .abortstack
  70097980    70097980    00000100   00000000    r-- .undefinedstack


SECTION ALLOCATION MAP

 output                                  attributes/
section   page    origin      length       input sections
--------  ----  ----------  ----------   ----------------
.vectors   0    70000000    00000040     
                  70000000    00000040     nortos.am64x.r5f.ti-arm-clang.release.lib : HwiP_armv7r_vectors_nortos_sbl_asm.obj (.vectors)

.text      0    70000100    00010050     
                  70000100    00000edc     drivers.am64x.r5f.ti-arm-clang.release.lib : mmcsd_v0.obj (.text.MMCSD_open)
                  70000fdc    00000c28     libc.a : _printfi.c.obj (.text:__TI_printfi_nofloat)
                  70001c04    0000000c            : aeabi_portable.c.obj (.text.__aeabi_errno_addr)
                  70001c10    00000898     drivers.am64x.r5f.ti-arm-clang.release.lib : mmcsd_v0.obj (.text.MMCSD_transfer)
                  700024a8    00000008     libc.a : exit.c.obj (.text:abort)
                  700024b0    000006be     drivers.am64x.r5f.ti-arm-clang.release.lib : sciclient_rm_irq.obj (.text.Sciclient_rmIrqFindRoute)
                  70002b6e    00000002     --HOLE-- [fill = 0]
                  70002b70    000005d4                                                : ospi_phy.obj (.text.OSPI_phyFindOTP1)
                  70003144    00000004     libclang_rt.builtins.a : aeabi_memcpy.S.obj (.text)
                  70003148    00000008     nortos.am64x.r5f.ti-arm-clang.release.lib : CacheP_armv7r_asm.obj (.tramp.CacheP_wb.1)
                  70003150    0000055e                                               : printf.obj (.text._vsnprintf)
                  700036ae    00000002     --HOLE-- [fill = 0]
                  700036b0    0000052a     drivers.am64x.r5f.ti-arm-clang.release.lib : udma_ch.obj (.text.Udma_chDisable)
                  70003bda    00000006     --HOLE-- [fill = 0]
                  70003be0    0000048e                                                : csl_bcdma.obj (.text.CSL_bcdmaChanOp)
                  7000406e    00000002     --HOLE-- [fill = 0]
                  70004070    0000046e                                                : udma_event.obj (.text.Udma_eventRegister)
                  700044de    00000002     --HOLE-- [fill = 0]
                  700044e0    000003d8                                                : uart_v0.obj (.text.UART_open)
                  700048b8    00000008     nortos.am64x.r5f.ti-arm-clang.release.lib : HwiP_armv7r_asm.obj (.tramp.HwiP_enable.1)
                  700048c0    000003b4     drivers.am64x.r5f.ti-arm-clang.release.lib : udma_ch.obj (.text.Udma_chOpen)
                  70004c74    00000008     nortos.am64x.r5f.ti-arm-clang.release.lib : HwiP_armv7r_asm.obj (.tramp.HwiP_restore.1)
                  70004c7c    00000004     --HOLE-- [fill = 0]
                  70004c80    0000039c     board.am64x.r5f.ti-arm-clang.release.lib : flash_nor_xspi.obj (.text.Flash_norXspiOpen)
                  7000501c    00000004     --HOLE-- [fill = 0]
                  70005020    00000376     drivers.am64x.r5f.ti-arm-clang.release.lib : sciclient.obj (.text.Sciclient_service)
                  70005396    0000000a     --HOLE-- [fill = 0]
                  700053a0    00000360                                                : udma_rm.obj (.text.Udma_rmInit)
                  70005700    00000350     nortos.am64x.r5f.ti-arm-clang.release.lib : printf.obj (.text._ftoa)
                  70005a50    00000326     drivers.am64x.r5f.ti-arm-clang.release.lib : ospi_phy.obj (.text.OSPI_phyFindOTP2)
                  70005d76    0000000a     --HOLE-- [fill = 0]
                  70005d80    000002e8     nortos.am64x.r5f.ti-arm-clang.release.lib : printf.obj (.text._etoa)
                  70006068    00000008     --HOLE-- [fill = 0]
                  70006070    000002ba     drivers.am64x.r5f.ti-arm-clang.release.lib : ddr.obj (.text.DDR_init)
                  7000632a    00000006     --HOLE-- [fill = 0]
                  70006330    000002a0                                                : udma_rmcfg_common.obj (.text.UdmaRmInitPrms_init)
                  700065d0    00000290                                                : ospi_v0.obj (.text.OSPI_open)
                  70006860    00000282                                                : udma_soc.obj (.text.Udma_initDrvHandle)
                  70006ae2    0000000e     --HOLE-- [fill = 0]
                  70006af0    00000276                                                : uart_v0.obj (.text.UART_read)
                  70006d66    0000000a     --HOLE-- [fill = 0]
                  70006d70    00000250                                                : bootloader_uniflash.obj (.text.Bootloader_uniflashProcessFlashCommands)
                  70006fc0    0000024c                                                : sciclient_rm_irq.obj (.text.Sciclient_rmProgramInterruptRoute)
                  7000720c    00000004     --HOLE-- [fill = 0]
                  70007210    0000022e                                                : xmodem.obj (.text.xmodemReceive)
                  7000743e    00000002     --HOLE-- [fill = 0]
                  70007440    0000021a                                                : uart_v0.obj (.text.UART_masterIsr)
                  7000765a    00000006     --HOLE-- [fill = 0]
                  70007660    0000020e                                                : xmodem.obj (.text.xmodemTransmit)
                  7000786e    00000002     --HOLE-- [fill = 0]
                  70007870    000001de                                                : uart_v0.obj (.text.UART_write)
                  70007a4e    00000002     --HOLE-- [fill = 0]
                  70007a50    000001d0                                                : uart_v0.obj (.text.UART_fifoConfig)
                  70007c20    000001d0     libclang_rt.builtins.a : udivsi3.S.obj (.text)
                  70007df0    000001cc     nortos.am64x.r5f.ti-arm-clang.release.lib : TimerP.obj (.text.TimerP_setup)
                  70007fbc    00000004     --HOLE-- [fill = 0]
                  70007fc0    0000019e     drivers.am64x.r5f.ti-arm-clang.release.lib : udma_ring_common.obj (.text.Udma_ringAlloc)
                  7000815e    00000002     --HOLE-- [fill = 0]
                  70008160    00000174                                                : sciclient_rm_irq.obj (.text.Sciclient_rmIrqProgramRoute)
                  700082d4    0000000c     --HOLE-- [fill = 0]
                  700082e0    00000146     nortos.am64x.r5f.ti-arm-clang.release.lib : printf.obj (.text._ntoa_format)
                  70008426    0000000a     --HOLE-- [fill = 0]
                  70008430    00000144     drivers.am64x.r5f.ti-arm-clang.release.lib : ospi_dma_udma.obj (.text.OspiDma_udmaOpen)
                  70008574    0000000c     --HOLE-- [fill = 0]
                  70008580    00000144                                                : uart_v0.obj (.text.UART_close)
                  700086c4    0000000c     --HOLE-- [fill = 0]
                  700086d0    00000140                                                : udma_ch.obj (.text.Udma_chConfigRx)
                  70008810    0000012c                                                : soc.obj (.text.SOC_moduleSetClockFrequency)
                  7000893c    00000004     --HOLE-- [fill = 0]
                  70008940    00000124                                                : lpddr4_16bit.obj (.text.LPDDR4_CheckCtlInterrupt)
                  70008a64    0000000c     --HOLE-- [fill = 0]
                  70008a70    0000011a                                                : ospi_dma_udma.obj (.text.OspiDma_udmaUpdateSubmitTR)
                  70008b8a    00000006     --HOLE-- [fill = 0]
                  70008b90    00000118                                                : lpddr4_16bit.obj (.text.LPDDR4_AckCtlInterrupt)
                  70008ca8    00000008     --HOLE-- [fill = 0]
                  70008cb0    00000118                                                : ospi_v0.obj (.text.OSPI_readCmd)
                  70008dc8    00000008     --HOLE-- [fill = 0]
                  70008dd0    00000118                                                : ospi_v0.obj (.text.OSPI_writeCmd)
                  70008ee8    00000118     libclang_rt.builtins.a : udivmoddi4.S.obj (.text)
                  70009000    0000010a     board.am64x.r5f.ti-arm-clang.release.lib : flash_nor_xspi.obj (.text.Flash_norXspiWrite)
                  7000910a    00000006     --HOLE-- [fill = 0]
                  70009110    00000102     drivers.am64x.r5f.ti-arm-clang.release.lib : udma_flow.obj (.text.Udma_flowConfig)
                  70009212    0000000e     --HOLE-- [fill = 0]
                  70009220    00000100                                                : csl_lcdma_ringacc.obj (.text.CSL_lcdma_ringaccPop64MultiAccess)
                  70009320    00000100                                                : udma_rm.obj (.text.Udma_rmSetSharedResRmInitPrms)
                  70009420    000000fc     nortos.am64x.r5f.ti-arm-clang.release.lib : ClockP_nortos_r5.obj (.text.ClockP_init)
                  7000951c    00000004     --HOLE-- [fill = 0]
                  70009520    000000f2     drivers.am64x.r5f.ti-arm-clang.release.lib : udma_ch.obj (.text.Udma_chEnable)
                  70009612    0000000e     --HOLE-- [fill = 0]
                  70009620    000000f0                                                : udma_ch.obj (.text.Udma_chFreeResource)
                  70009710    000000ee                                                : mmcsd_v0.obj (.text.MMCSD_read)
                  700097fe    00000002     --HOLE-- [fill = 0]
                  70009800    000000ee                                                : mmcsd_v0.obj (.text.MMCSD_write)
                  700098ee    00000002     --HOLE-- [fill = 0]
                  700098f0    000000e6                                                : bootloader_mmcsd_raw.obj (.text.Bootloader_MmcsdRaw_writeToOffset)
                  700099d6    0000000a     --HOLE-- [fill = 0]
                  700099e0    000000e6                                                : mmcsd_v0.obj (.text.MMCSD_phyConfigure)
                  70009ac6    0000000a     --HOLE-- [fill = 0]
                  70009ad0    000000e6                                                : ospi_v0.obj (.text.OSPI_writeIndirect)
                  70009bb6    0000000a     --HOLE-- [fill = 0]
                  70009bc0    000000d8                                                : bootloader_uniflash.obj (.text.Bootloader_uniflashFlashOrVerifyXipFile)
                  70009c98    00000008     --HOLE-- [fill = 0]
                  70009ca0    000000d8                                                : csl_lcdma_ringacc.obj (.text.CSL_lcdma_ringaccPush64MultiAccess)
                  70009d78    00000008     --HOLE-- [fill = 0]
                  70009d80    000000d8                                                : udma_ch.obj (.text.Udma_chConfigTx)
                  70009e58    00000008     --HOLE-- [fill = 0]
                  70009e60    000000d0                                                : bootloader_mmcsd_raw.obj (.text.Bootloader_MmcsdRaw_readFromOffset)
                  70009f30    000000ca                                                : csl_lcdma_ringacc.obj (.text.CSL_lcdma_ringaccDequeue)
                  70009ffa    00000006     --HOLE-- [fill = 0]
                  7000a000    000000c0                                                : mmcsd_v0.obj (.text.MMCSD_enableBootPartition)
                  7000a0c0    000000be                                                : ospi_v0.obj (.text.OSPI_readDirect)
                  7000a17e    00000002     --HOLE-- [fill = 0]
                  7000a180    000000b6     board.am64x.r5f.ti-arm-clang.release.lib : flash_nor_xspi.obj (.text.Flash_norXspiErase)
                  7000a236    0000000a     --HOLE-- [fill = 0]
                  7000a240    000000b6                                              : flash_nor_xspi.obj (.text.Flash_norXspiWaitReady)
                  7000a2f6    0000000a     --HOLE-- [fill = 0]
                  7000a300    000000b6     drivers.am64x.r5f.ti-arm-clang.release.lib : uart_v0.obj (.text.UART_divisorLatchWrite)
                  7000a3b6    0000000a     --HOLE-- [fill = 0]
                  7000a3c0    000000b2                                                : mmcsd_v0.obj (.text.MMCSD_halSetBusFreq)
                  7000a472    0000000e     --HOLE-- [fill = 0]
                  7000a480    000000b2                                                : uart_v0.obj (.text.UART_flushTxFifo)
                  7000a532    0000000e     --HOLE-- [fill = 0]
                  7000a540    000000ac     board.am64x.r5f.ti-arm-clang.release.lib : flash_nor_xspi.obj (.text.Flash_norXspiReadId)
                  7000a5ec    00000004     --HOLE-- [fill = 0]
                  7000a5f0    000000ac     main.obj (.text.main)
                  7000a69c    00000004     --HOLE-- [fill = 0]
                  7000a6a0    000000aa     drivers.am64x.r5f.ti-arm-clang.release.lib : udma_rm.obj (.text.Udma_rmAllocMappedRxCh)
                  7000a74a    00000006     --HOLE-- [fill = 0]
                  7000a750    000000aa                                                : udma_rm.obj (.text.Udma_rmAllocMappedTxCh)
                  7000a7fa    00000006     --HOLE-- [fill = 0]
                  7000a800    000000a8                                                : pinmux.obj (.text.Pinmux_config)
                  7000a8a8    00000008     --HOLE-- [fill = 0]
                  7000a8b0    000000a4                                                : sciclient_rm_irq.obj (.text.Sciclient_rmIrInpIsFree)
                  7000a954    0000000c     --HOLE-- [fill = 0]
                  7000a960    000000a4                                                : uart_v0.obj (.text.UART_procLineStatusErr)
                  7000aa04    0000000c     --HOLE-- [fill = 0]
                  7000aa10    000000a2                                                : udma_rm.obj (.text.Udma_rmAllocBlkCopyCh)
                  7000aab2    0000000e     --HOLE-- [fill = 0]
                  7000aac0    000000a2                                                : udma_rm.obj (.text.Udma_rmAllocBlkCopyHcCh)
                  7000ab62    0000000e     --HOLE-- [fill = 0]
                  7000ab70    000000a2                                                : udma_rm.obj (.text.Udma_rmAllocBlkCopyUhcCh)
                  7000ac12    0000000e     --HOLE-- [fill = 0]
                  7000ac20    000000a2                                                : udma_rm.obj (.text.Udma_rmAllocIrIntr)
                  7000acc2    0000000e     --HOLE-- [fill = 0]
                  7000acd0    000000a2                                                : udma_rm.obj (.text.Udma_rmAllocRxCh)
                  7000ad72    0000000e     --HOLE-- [fill = 0]
                  7000ad80    000000a2                                                : udma_rm.obj (.text.Udma_rmAllocRxHcCh)
                  7000ae22    0000000e     --HOLE-- [fill = 0]
                  7000ae30    000000a2                                                : udma_rm.obj (.text.Udma_rmAllocRxUhcCh)
                  7000aed2    0000000e     --HOLE-- [fill = 0]
                  7000aee0    000000a2                                                : udma_rm.obj (.text.Udma_rmAllocTxCh)
                  7000af82    0000000e     --HOLE-- [fill = 0]
                  7000af90    000000a2                                                : udma_rm.obj (.text.Udma_rmAllocTxHcCh)
                  7000b032    0000000e     --HOLE-- [fill = 0]
                  7000b040    000000a2                                                : udma_rm.obj (.text.Udma_rmAllocTxUhcCh)
                  7000b0e2    0000000e     --HOLE-- [fill = 0]
                  7000b0f0    000000a2     nortos.am64x.r5f.ti-arm-clang.release.lib : printf.obj (.text._ntoa_long_long)
                  7000b192    0000000e     --HOLE-- [fill = 0]
                  7000b1a0    000000a0     drivers.am64x.r5f.ti-arm-clang.release.lib : bootloader_uniflash.obj (.text.Bootloader_uniflashFlashVerifyFile)
                  7000b240    0000009e                                                : sciclient_pm.obj (.text.Sciclient_pmQueryModuleClkFreq)
                  7000b2de    00000002     --HOLE-- [fill = 0]
                  7000b2e0    0000009e                                                : udma.obj (.text.Udma_init)
                  7000b37e    00000002     --HOLE-- [fill = 0]
                  7000b380    0000009a                                                : bootloader_uniflash.obj (.text.Bootloader_uniflashFlashFile)
                  7000b41a    00000006     --HOLE-- [fill = 0]
                  7000b420    0000009a                                                : bootloader_uniflash.obj (.text.Bootloader_uniflashFlashVerifyFileMMCSDRaw)
                  7000b4ba    00000006     --HOLE-- [fill = 0]
                  7000b4c0    0000009a                                                : mmcsd_priv.obj (.text.MMCSD_parseCSDSd)
                  7000b55a    00000006     --HOLE-- [fill = 0]
                  7000b560    0000009a                                                : udma_rm.obj (.text.Udma_rmAllocMappedRing)
                  7000b5fa    00000006     --HOLE-- [fill = 0]
                  7000b600    00000098                                                : sciclient.obj (.text.Sciclient_init)
                  7000b698    00000008     --HOLE-- [fill = 0]
                  7000b6a0    00000096                                                : mmcsd_priv.obj (.text.MMCSD_parseECSDEmmc)
                  7000b736    0000000a     --HOLE-- [fill = 0]
                  7000b740    00000094                                                : ospi_phy.obj (.text.OSPI_phyTuneDDR)
                  7000b7d4    0000000c     --HOLE-- [fill = 0]
                  7000b7e0    00000094                                                : sciclient_rm_irq.obj (.text.Sciclient_rmTranslateIntOutput)
                  7000b874    0000000c     --HOLE-- [fill = 0]
                  7000b880    00000094                                                : sciclient.obj (.text.Sciclient_sendMessage)
                  7000b914    0000000c     --HOLE-- [fill = 0]
                  7000b920    00000094     nortos.am64x.r5f.ti-arm-clang.release.lib : SemaphoreP_nortos.obj (.text.SemaphoreP_pend)
                  7000b9b4    0000000c     --HOLE-- [fill = 0]
                  7000b9c0    00000094     drivers.am64x.r5f.ti-arm-clang.release.lib : uart_v0.obj (.text.UART_init)
                  7000ba54    0000000c     --HOLE-- [fill = 0]
                  7000ba60    00000092                                                : udma_ch.obj (.text.Udma_chClose)
                  7000baf2    0000000e     --HOLE-- [fill = 0]
                  7000bb00    00000092                                                : udma_event.obj (.text.Udma_eventFreeResource)
                  7000bb92    0000000e     --HOLE-- [fill = 0]
                  7000bba0    00000092     nortos.am64x.r5f.ti-arm-clang.release.lib : printf.obj (.text._ntoa_long)
                  7000bc32    0000000e     --HOLE-- [fill = 0]
                  7000bc40    0000008c     drivers.am64x.r5f.ti-arm-clang.release.lib : sciclient_pm.obj (.text.Sciclient_pmSetModuleClkFreq)
                  7000bccc    00000004     --HOLE-- [fill = 0]
                  7000bcd0    0000008c                                                : uart_v0.obj (.text.UART_readCancelNoCB)
                  7000bd5c    00000004     --HOLE-- [fill = 0]
                  7000bd60    0000008c                                                : udma_ring_lcdma.obj (.text.Udma_ringSetCfgLcdma)
                  7000bdec    00000004     --HOLE-- [fill = 0]
                  7000bdf0    0000008a     board.am64x.r5f.ti-arm-clang.release.lib : flash_nor_xspi.obj (.text.Flash_norXspiRegWrite)
                  7000be7a    00000006     --HOLE-- [fill = 0]
                  7000be80    0000008a     drivers.am64x.r5f.ti-arm-clang.release.lib : udma_rm.obj (.text.Udma_rmGetSciclientDefaultBoardCfgRmRange)
                  7000bf0a    00000006     --HOLE-- [fill = 0]
                  7000bf10    0000008a     nortos.am64x.r5f.ti-arm-clang.release.lib : printf.obj (.text._out_rev)
                  7000bf9a    00000006     --HOLE-- [fill = 0]
                  7000bfa0    00000086     drivers.am64x.r5f.ti-arm-clang.release.lib : udma_event.obj (.text.Udma_eventIsrFxn)
                  7000c026    0000000a     --HOLE-- [fill = 0]
                  7000c030    00000084                                                : csl_pktdma.obj (.text.CSL_pktdmaTeardownChan)
                  7000c0b4    0000000c     --HOLE-- [fill = 0]
                  7000c0c0    00000084                                                : ospi_dma_udma.obj (.text.OspiDma_udmaCopy)
                  7000c144    0000000c     --HOLE-- [fill = 0]
                  7000c150    00000082                                                : mmcsd_v0.obj (.text.MMCSD_init)
                  7000c1d2    0000000e     --HOLE-- [fill = 0]
                  7000c1e0    00000082                                                : mmcsd_priv.obj (.text.MMCSD_parseCIDEmmc)
                  7000c262    0000000e     --HOLE-- [fill = 0]
                  7000c270    00000082                                                : ospi_v0.obj (.text.OSPI_init)
                  7000c2f2    0000000e     --HOLE-- [fill = 0]
                  7000c300    0000007e                                                : sciclient_rm_irq.obj (.text.Sciclient_rmIrOutpIsFree)
                  7000c37e    00000002     --HOLE-- [fill = 0]
                  7000c380    0000007c                                                : bootloader_soc.obj (.text.Bootloader_socOpenFirewalls)
                  7000c3fc    00000004     --HOLE-- [fill = 0]
                  7000c400    0000007a                                                : sciclient_pm.obj (.text.Sciclient_pmGetModuleClkNumParent)
                  7000c47a    00000006     --HOLE-- [fill = 0]
                  7000c480    00000078                                                : bootloader_soc.obj (.text.Bootloader_socOpenFirewallRegion)
                  7000c4f8    00000008     --HOLE-- [fill = 0]
                  7000c500    00000078                                                : mmcsd_v0.obj (.text.MMCSD_phyInit)
                  7000c578    00000008     --HOLE-- [fill = 0]
                  7000c580    00000078     ti_drivers_config.obj (.text.System_init)
                  7000c5f8    00000008     --HOLE-- [fill = 0]
                  7000c600    00000078     drivers.am64x.r5f.ti-arm-clang.release.lib : udma_rm.obj (.text.Udma_rmAllocVintrBit)
                  7000c678    00000008     --HOLE-- [fill = 0]
                  7000c680    00000076                                                : sciclient_rm_irq.obj (.text.Sciclient_rmIrqGetNode)
                  7000c6f6    00000002     --HOLE-- [fill = 0]
                  7000c6f8    00000074     libc.a : snprintf.c.obj (.text.snprintf)
                  7000c76c    00000004     --HOLE-- [fill = 0]
                  7000c770    00000070     drivers.am64x.r5f.ti-arm-clang.release.lib : mmcsd_v0.obj (.text.MMCSD_isReadyForTransfer)
                  7000c7e0    00000070                                                : ospi_phy.obj (.text.OSPI_phyResyncDLL)
                  7000c850    00000070                                                : soc.obj (.text.SOC_moduleClockEnable)
                  7000c8c0    0000006e                                                : csl_pktdma.obj (.text.CSL_pktdmaAccessChanPeerReg)
                  7000c92e    00000002     --HOLE-- [fill = 0]
                  7000c930    0000006e                                                : lpddr4.obj (.text.LPDDR4_Start)
                  7000c99e    00000002     --HOLE-- [fill = 0]
                  7000c9a0    0000006e                                                : mmcsd_priv.obj (.text.MMCSD_parseCIDSd)
                  7000ca0e    00000002     --HOLE-- [fill = 0]
                  7000ca10    0000006e                                                : sciclient_pm.obj (.text.Sciclient_pmGetModuleState)
                  7000ca7e    00000002     --HOLE-- [fill = 0]
                  7000ca80    0000006c     nortos.am64x.r5f.ti-arm-clang.release.lib : ClockP_nortos.obj (.text.ClockP_timerTickIsr)
                  7000caec    0000006c     libc.a : atoi.c.obj (.text.atoi)
                  7000cb58    00000008     --HOLE-- [fill = 0]
                  7000cb60    0000006a     drivers.am64x.r5f.ti-arm-clang.release.lib : ospi_dma_udma.obj (.text.OspiDma_udmaClose)
                  7000cbca    00000006     --HOLE-- [fill = 0]
                  7000cbd0    0000006a                                                : uart_v0.obj (.text.UART_writeCancelNoCB)
                  7000cc3a    00000006     --HOLE-- [fill = 0]
                  7000cc40    00000068     nortos.am64x.r5f.ti-arm-clang.release.lib : AddrTranslateP.obj (.text.AddrTranslateP_getLocalAddr)
                  7000cca8    00000008     --HOLE-- [fill = 0]
                  7000ccb0    00000066     drivers.am64x.r5f.ti-arm-clang.release.lib : csl_bcdma.obj (.text.CSL_bcdmaDoChanOp)
                  7000cd16    0000000a     --HOLE-- [fill = 0]
                  7000cd20    00000066                                                : sciclient_pm.obj (.text.Sciclient_pmGetModuleClkParent)
                  7000cd86    0000000a     --HOLE-- [fill = 0]
                  7000cd90    00000064                                                : mmcsd_v0.obj (.text.MMCSD_cmdStatusPollingFxn)
                  7000cdf4    0000000c     --HOLE-- [fill = 0]
                  7000ce00    00000064                                                : ospi_v0.obj (.text.OSPI_close)
                  7000ce64    0000000c     --HOLE-- [fill = 0]
                  7000ce70    00000064                                                : sciclient_pm.obj (.text.Sciclient_pmModuleGetClkStatus)
                  7000ced4    0000000c     --HOLE-- [fill = 0]
                  7000cee0    00000064                                                : udma_utils.obj (.text.UdmaUtils_makeTrpd)
                  7000cf44    0000000c     --HOLE-- [fill = 0]
                  7000cf50    00000062     ti_board_open_close.obj (.text.Board_flashOpen)
                  7000cfb2    0000000e     --HOLE-- [fill = 0]
                  7000cfc0    00000062     drivers.am64x.r5f.ti-arm-clang.release.lib : ospi_v0.obj (.text.OSPI_setXferOpCodes)
                  7000d022    0000000e     --HOLE-- [fill = 0]
                  7000d030    00000062                                                : udma_ring_lcdma.obj (.text.Udma_ringFlushRawLcdma)
                  7000d092    0000000e     --HOLE-- [fill = 0]
                  7000d0a0    00000062                                                : udma_ring_common.obj (.text.Udma_ringFree)
                  7000d102    0000000e     --HOLE-- [fill = 0]
                  7000d110    00000062                                                : udma_ring_common.obj (.text.Udma_ringQueueRaw)
                  7000d172    0000000e     --HOLE-- [fill = 0]
                  7000d180    00000060                                                : sciclient_pm.obj (.text.Sciclient_pmSetModuleClkParent)
                  7000d1e0    00000060                                                : sciclient.obj (.text.Sciclient_waitForBootNotification)
                  7000d240    0000005e                                                : ospi_phy.obj (.text.OSPI_phyFindRxHigh)
                  7000d29e    00000002     --HOLE-- [fill = 0]
                  7000d2a0    0000005e                                                : ospi_phy.obj (.text.OSPI_phyFindRxLow)
                  7000d2fe    00000002     --HOLE-- [fill = 0]
                  7000d300    0000005e                                                : ospi_phy.obj (.text.OSPI_phyFindTxHigh)
                  7000d35e    00000002     --HOLE-- [fill = 0]
                  7000d360    0000005e                                                : ospi_phy.obj (.text.OSPI_phyFindTxLow)
                  7000d3be    00000002     --HOLE-- [fill = 0]
                  7000d3c0    0000005e                                                : sciclient_pm.obj (.text.Sciclient_pmModuleClkRequest)
                  7000d41e    00000002     --HOLE-- [fill = 0]
                  7000d420    0000005e                                                : udma_rm.obj (.text.Udma_rmFreeMappedRing)
                  7000d47e    00000002     --HOLE-- [fill = 0]
                  7000d480    0000005c     board.am64x.r5f.ti-arm-clang.release.lib : flash_nor_xspi.obj (.text.Flash_norXspiRead)
                  7000d4dc    00000004     --HOLE-- [fill = 0]
                  7000d4e0    0000005c     drivers.am64x.r5f.ti-arm-clang.release.lib : udma_rm.obj (.text.Udma_rmAllocEvent)
                  7000d53c    00000004     --HOLE-- [fill = 0]
                  7000d540    0000005c                                                : udma_rm.obj (.text.Udma_rmAllocVintr)
                  7000d59c    00000004     --HOLE-- [fill = 0]
                  7000d5a0    0000005c     nortos.am64x.r5f.ti-arm-clang.release.lib : DebugP_log.obj (.text._DebugP_assert)
                  7000d5fc    0000005c     libc.a : autoinit.c.obj (.text:__TI_auto_init_nobinit_nopinit)
                  7000d658    00000008     --HOLE-- [fill = 0]
                  7000d660    0000005a     drivers.am64x.r5f.ti-arm-clang.release.lib : udma_ring_common.obj (.text.Udma_ringDequeueRaw)
                  7000d6ba    00000006     --HOLE-- [fill = 0]
                  7000d6c0    00000058                                                : lpddr4.obj (.text.LPDDR4_ReadReg)
                  7000d718    00000008     --HOLE-- [fill = 0]
                  7000d720    00000058                                                : mmcsd_v0.obj (.text.MMCSD_halSendCommand)
                  7000d778    00000008     --HOLE-- [fill = 0]
                  7000d780    00000058                                                : uart_dma.obj (.text.UART_dmaDisableChannel)
                  7000d7d8    00000008     --HOLE-- [fill = 0]
                  7000d7e0    00000058                                                : udma_rm.obj (.text.Udma_rmFreeVintrBit)
                  7000d838    00000058     libc.a : snprintf.c.obj (.text._outs)
                  7000d890    00000056     board.am64x.r5f.ti-arm-clang.release.lib : flash.obj (.text.Flash_offsetToBlkPage)
                  7000d8e6    0000000a     --HOLE-- [fill = 0]
                  7000d8f0    00000054     drivers.am64x.r5f.ti-arm-clang.release.lib : csl_intaggr.obj (.text.CSL_intaggrIsIntrPending)
                  7000d944    0000000c     --HOLE-- [fill = 0]
                  7000d950    00000054                                                : uart_dma.obj (.text.UART_dmaClose)
                  7000d9a4    0000000c     --HOLE-- [fill = 0]
                  7000d9b0    00000052                                                : mmcsd_v0.obj (.text.MMCSD_close)
                  7000da02    0000000e     --HOLE-- [fill = 0]
                  7000da10    00000052                                                : sciclient_pm.obj (.text.Sciclient_pmSetModuleState)
                  7000da62    0000000e     --HOLE-- [fill = 0]
                  7000da70    0000004e                                                : csl_intaggr.obj (.text.CSL_intaggrClrIntr)
                  7000dabe    00000002     --HOLE-- [fill = 0]
                  7000dac0    0000004e                                                : mmcsd_v0.obj (.text.MMCSD_halSetBusWidth)
                  7000db0e    00000002     --HOLE-- [fill = 0]
                  7000db10    0000004e                                                : sciclient_soc_priv.obj (.text.Sciclient_getContext)
                  7000db5e    00000002     --HOLE-- [fill = 0]
                  7000db60    0000004c     nortos.am64x.r5f.ti-arm-clang.release.lib : ClockP_nortos.obj (.text.ClockP_addToList)
                  7000dbac    00000004     --HOLE-- [fill = 0]
                  7000dbb0    0000004c                                               : ClockP_nortos.obj (.text.ClockP_getTimeUsec)
                  7000dbfc    00000004     --HOLE-- [fill = 0]
                  7000dc00    0000004c     ti_drivers_open_close.obj (.text.Drivers_mmcsdOpen)
                  7000dc4c    00000004     --HOLE-- [fill = 0]
                  7000dc50    0000004c     ti_drivers_open_close.obj (.text.Drivers_ospiOpen)
                  7000dc9c    00000004     --HOLE-- [fill = 0]
                  7000dca0    0000004c     ti_drivers_open_close.obj (.text.Drivers_uartOpen)
                  7000dcec    00000004     --HOLE-- [fill = 0]
                  7000dcf0    0000004c     drivers.am64x.r5f.ti-arm-clang.release.lib : ospi_phy.obj (.text.OSPI_phyReadAttackVector)
                  7000dd3c    00000004     --HOLE-- [fill = 0]
                  7000dd40    0000004c                                                : sciclient_rm.obj (.text.Sciclient_rmGetResourceRange)
                  7000dd8c    00000004     --HOLE-- [fill = 0]
                  7000dd90    0000004c                                                : udma_ring_lcdma.obj (.text.Udma_ringSetDoorBellLcdma)
                  7000dddc    00000004     --HOLE-- [fill = 0]
                  7000dde0    0000004a     nortos.am64x.r5f.ti-arm-clang.release.lib : ClockP_nortos.obj (.text.ClockP_construct)
                  7000de2a    00000006     --HOLE-- [fill = 0]
                  7000de30    00000048     drivers.am64x.r5f.ti-arm-clang.release.lib : ospi_phy.obj (.text.OSPI_phySetRdDelayTxRxDLL)
                  7000de78    00000008     --HOLE-- [fill = 0]
                  7000de80    00000048                                                : udma_ch.obj (.text.UdmaChTxPrms_init)
                  7000dec8    00000008     --HOLE-- [fill = 0]
                  7000ded0    00000048                                                : udma_rm.obj (.text.Udma_rmFreeMappedRxCh)
                  7000df18    00000008     --HOLE-- [fill = 0]
                  7000df20    00000048                                                : udma_rm.obj (.text.Udma_rmFreeMappedTxCh)
                  7000df68    00000048     libc.a : memccpy.c.obj (.text.memccpy)
                  7000dfb0    00000046     drivers.am64x.r5f.ti-arm-clang.release.lib : csl_bcdma.obj (.text.CSL_bcdmaChanOpSetChanPause)
                  7000dff6    0000000a     --HOLE-- [fill = 0]
                  7000e000    00000046                                                : udma_flow.obj (.text.UdmaFlowPrms_init)
                  7000e046    0000000a     --HOLE-- [fill = 0]
                  7000e050    00000046                                                : bootloader_xmodem.obj (.text._inbyte)
                  7000e096    0000000a     --HOLE-- [fill = 0]
                  7000e0a0    00000044     nortos.am64x.r5f.ti-arm-clang.release.lib : ClockP_nortos.obj (.text.ClockP_stop)
                  7000e0e4    0000000c     --HOLE-- [fill = 0]
                  7000e0f0    00000044     drivers.am64x.r5f.ti-arm-clang.release.lib : lpddr4.obj (.text.LPDDR4_WritePhyIndepConfig)
                  7000e134    0000000c     --HOLE-- [fill = 0]
                  7000e140    00000044                                                : sciclient_pm.obj (.text.Sciclient_pmSetModuleRst)
                  7000e184    0000000c     --HOLE-- [fill = 0]
                  7000e190    00000042                                                : ddr_soc.obj (.text.DDR_socEnableVttRegulator)
                  7000e1d2    0000000e     --HOLE-- [fill = 0]
                  7000e1e0    00000042                                                : lpddr4.obj (.text.LPDDR4_WritePhyConfig)
                  7000e222    0000000e     --HOLE-- [fill = 0]
                  7000e230    00000042                                                : ospi_v0.obj (.text.OSPI_enablePhy)
                  7000e272    0000000e     --HOLE-- [fill = 0]
                  7000e280    00000042                                                : sciclient_rm.obj (.text.Sciclient_rmPsilPair)
                  7000e2c2    0000000e     --HOLE-- [fill = 0]
                  7000e2d0    00000042                                                : sciclient_rm.obj (.text.Sciclient_rmPsilUnpair)
                  7000e312    0000000e     --HOLE-- [fill = 0]
                  7000e320    00000042                                                : udma_ch.obj (.text.UdmaChPrms_init)
                  7000e362    0000000e     --HOLE-- [fill = 0]
                  7000e370    00000042                                                : udma_ch.obj (.text.UdmaChRxPrms_init)
                  7000e3b2    0000000e     --HOLE-- [fill = 0]
                  7000e3c0    00000040     ti_dpl_config.obj (.text.Dpl_init)
                  7000e400    00000040     drivers.am64x.r5f.ti-arm-clang.release.lib : mmcsd_priv.obj (.text.MMCSD_parseCSDEmmc)
                  7000e440    00000040                                                : sciclient_firewall.obj (.text.Sciclient_firewallChangeOwnerInfo)
                  7000e480    00000040                                                : sciclient_firewall.obj (.text.Sciclient_firewallSetRegion)
                  7000e4c0    00000040                                                : sciclient_rm.obj (.text.Sciclient_rmIrqSetRaw)
                  7000e500    00000040                                                : sciclient_rm.obj (.text.Sciclient_rmRingCfg)
                  7000e540    00000040                                                : sciclient_rm.obj (.text.Sciclient_rmUdmapFlowCfg)
                  7000e580    00000040                                                : sciclient_rm.obj (.text.Sciclient_rmUdmapFlowSizeThreshCfg)
                  7000e5c0    00000040                                                : sciclient_rm.obj (.text.Sciclient_rmUdmapRxChCfg)
                  7000e600    00000040                                                : sciclient_rm.obj (.text.Sciclient_rmUdmapTxChCfg)
                  7000e640    00000040     nortos.am64x.r5f.ti-arm-clang.release.lib : SemaphoreP_nortos.obj (.text.SemaphoreP_constructBinary)
                  7000e680    00000040     drivers.am64x.r5f.ti-arm-clang.release.lib : udma_ring_lcdma.obj (.text.Udma_ringPrimeReadLcdma)
                  7000e6c0    00000040                                                : udma_rm.obj (.text.Udma_rmFreeBlkCopyCh)
                  7000e700    00000040                                                : udma_rm.obj (.text.Udma_rmFreeBlkCopyHcCh)
                  7000e740    00000040                                                : udma_rm.obj (.text.Udma_rmFreeBlkCopyUhcCh)
                  7000e780    00000040                                                : udma_rm.obj (.text.Udma_rmFreeEvent)
                  7000e7c0    00000040                                                : udma_rm.obj (.text.Udma_rmFreeIrIntr)
                  7000e800    00000040                                                : udma_rm.obj (.text.Udma_rmFreeRxCh)
                  7000e840    00000040                                                : udma_rm.obj (.text.Udma_rmFreeRxHcCh)
                  7000e880    00000040                                                : udma_rm.obj (.text.Udma_rmFreeRxUhcCh)
                  7000e8c0    00000040                                                : udma_rm.obj (.text.Udma_rmFreeTxCh)
                  7000e900    00000040                                                : udma_rm.obj (.text.Udma_rmFreeTxHcCh)
                  7000e940    00000040                                                : udma_rm.obj (.text.Udma_rmFreeTxUhcCh)
                  7000e980    00000040                                                : udma_rm.obj (.text.Udma_rmFreeVintr)
                  7000e9c0    0000003e                                                : lpddr4.obj (.text.LPDDR4_WriteCtlConfig)
                  7000e9fe    00000002     --HOLE-- [fill = 0]
                  7000ea00    0000003e                                                : soc.obj (.text.SOC_controlModuleUnlockMMR)
                  7000ea3e    00000002     --HOLE-- [fill = 0]
                  7000ea40    0000003e                                                : udma_soc.obj (.text.Udma_getMappedChRingAttributes)
                  7000ea7e    00000002     --HOLE-- [fill = 0]
                  7000ea80    0000003c                                                : mmcsd_v0.obj (.text.MMCSD_halBusPower)
                  7000eabc    00000004     --HOLE-- [fill = 0]
                  7000eac0    0000003c     nortos.am64x.r5f.ti-arm-clang.release.lib : SemaphoreP_nortos.obj (.text.SemaphoreP_constructMutex)
                  7000eafc    00000004     --HOLE-- [fill = 0]
                  7000eb00    0000003c     drivers.am64x.r5f.ti-arm-clang.release.lib : udma_event.obj (.text.UdmaEventPrms_init)
                  7000eb3c    00000004     --HOLE-- [fill = 0]
                  7000eb40    0000003c                                                : udma_ring_common.obj (.text.Udma_ringFlushRaw)
                  7000eb7c    00000004     --HOLE-- [fill = 0]
                  7000eb80    0000003a     nortos.am64x.r5f.ti-arm-clang.release.lib : ClockP_nortos.obj (.text.ClockP_destruct)
                  7000ebba    00000006     --HOLE-- [fill = 0]
                  7000ebc0    0000003a     drivers.am64x.r5f.ti-arm-clang.release.lib : mmcsd_v0.obj (.text.MMCSD_halSoftReset)
                  7000ebfa    00000006     --HOLE-- [fill = 0]
                  7000ec00    0000003a                                                : ospi_dma.obj (.text.OSPI_dmaOpen)
                  7000ec3a    00000006     --HOLE-- [fill = 0]
                  7000ec40    0000003a                                                : uart_dma.obj (.text.UART_dmaOpen)
                  7000ec7a    00000006     --HOLE-- [fill = 0]
                  7000ec80    00000038     ti_power_clock_config.obj (.text.Module_clockSetFrequency)
                  7000ecb8    00000008     --HOLE-- [fill = 0]
                  7000ecc0    00000038     drivers.am64x.r5f.ti-arm-clang.release.lib : sciclient.obj (.text.Sciclient_getCurrentContext)
                  7000ecf8    00000008     --HOLE-- [fill = 0]
                  7000ed00    00000038                                                : udma_ring_lcdma.obj (.text.Udma_lcdmaRingaccMemOps)
                  7000ed38    00000008     --HOLE-- [fill = 0]
                  7000ed40    00000038     nortos.am64x.r5f.ti-arm-clang.release.lib : DebugP_nortos.obj (.text._DebugP_logZone)
                  7000ed78    00000008     --HOLE-- [fill = 0]
                  7000ed80    00000036     drivers.am64x.r5f.ti-arm-clang.release.lib : csl_bcdma.obj (.text.CSL_bcdmaGetCfg)
                  7000edb6    0000000a     --HOLE-- [fill = 0]
                  7000edc0    00000036                                                : csl_pktdma.obj (.text.CSL_pktdmaGetCfg)
                  7000edf6    0000000a     --HOLE-- [fill = 0]
                  7000ee00    00000036     board.am64x.r5f.ti-arm-clang.release.lib : flash.obj (.text.Flash_open)
                  7000ee36    0000000a     --HOLE-- [fill = 0]
                  7000ee40    00000036     drivers.am64x.r5f.ti-arm-clang.release.lib : mmcsd_v0.obj (.text.MMCSD_halCmdResponseGet)
                  7000ee76    0000000a     --HOLE-- [fill = 0]
                  7000ee80    00000036                                                : bootloader_xmodem.obj (.text._outbyte)
                  7000eeb6    0000000a     --HOLE-- [fill = 0]
                  7000eec0    00000034     nortos.am64x.r5f.ti-arm-clang.release.lib : ClockP_nortos.obj (.text.ClockP_start)
                  7000eef4    0000000c     --HOLE-- [fill = 0]
                  7000ef00    00000034     drivers.am64x.r5f.ti-arm-clang.release.lib : lpddr4_16bit.obj (.text.LPDDR4_EnablePIInitiator)
                  7000ef34    0000000c     --HOLE-- [fill = 0]
                  7000ef40    00000034                                                : lpddr4.obj (.text.LPDDR4_PollCtlIrq)
                  7000ef74    0000000c     --HOLE-- [fill = 0]
                  7000ef80    00000034                                                : ospi_v0.obj (.text.OSPI_disablePhy)
                  7000efb4    0000000c     --HOLE-- [fill = 0]
                  7000efc0    00000034                                                : ospi_v0.obj (.text.OSPI_setXferLines)
                  7000eff4    0000000c     --HOLE-- [fill = 0]
                  7000f000    00000034                                                : udma_rmcfg.obj (.text.Udma_rmGetSharedResPrms)
                  7000f034    0000000c     --HOLE-- [fill = 0]
                  7000f040    00000032                                                : bootloader_xmodem.obj (.text.Bootloader_xmodemTransmit)
                  7000f072    0000000e     --HOLE-- [fill = 0]
                  7000f080    00000032     nortos.am64x.r5f.ti-arm-clang.release.lib : ClockP_nortos.obj (.text.ClockP_usleep)
                  7000f0b2    0000000e     --HOLE-- [fill = 0]
                  7000f0c0    00000032                                               : SemaphoreP_nortos.obj (.text.SemaphoreP_post)
                  7000f0f2    0000000e     --HOLE-- [fill = 0]
                  7000f100    00000030     drivers.am64x.r5f.ti-arm-clang.release.lib : bootloader_xmodem.obj (.text.Bootloader_xmodemReceive)
                  7000f130    00000030                                                : csl_intaggr.obj (.text.CSL_intaggrGetCfg)
                  7000f160    00000030     ti_power_clock_config.obj (.text.Module_clockEnable)
                  7000f190    00000030     libc.a : snprintf.c.obj (.text._outc)
                  7000f1c0    0000002e     drivers.am64x.r5f.ti-arm-clang.release.lib : ddr.obj (.text.DDR_setFreq)
                  7000f1ee    00000002     --HOLE-- [fill = 0]
                  7000f1f0    0000002e                                                : mmcsd_v0.obj (.text.MMCSD_getHandle)
                  7000f21e    00000002     --HOLE-- [fill = 0]
                  7000f220    0000002e                                                : mmcsd_v0.obj (.text.MMCSD_halLinesResetCmd)
                  7000f24e    00000002     --HOLE-- [fill = 0]
                  7000f250    0000002e                                                : mmcsd_v0.obj (.text.MMCSD_halLinesResetDat)
                  7000f27e    00000002     --HOLE-- [fill = 0]
                  7000f280    0000002e                                                : uart_v0.obj (.text.UART_getHandle)
                  7000f2ae    00000002     --HOLE-- [fill = 0]
                  7000f2b0    0000002e                                                : udma_ring_common.obj (.text.UdmaRingPrms_init)
                  7000f2de    00000002     --HOLE-- [fill = 0]
                  7000f2e0    0000002e                                                : udma_ch.obj (.text.Udma_chGetCqRingNum)
                  7000f30e    00000002     --HOLE-- [fill = 0]
                  7000f310    0000002c                                                : csl_pktdma.obj (.text.CSL_pktdmaGetRxRT)
                  7000f33c    00000004     --HOLE-- [fill = 0]
                  7000f340    0000002c                                                : csl_pktdma.obj (.text.CSL_pktdmaGetTxRT)
                  7000f36c    00000004     --HOLE-- [fill = 0]
                  7000f370    0000002c                                                : ospi_v0.obj (.text.OSPI_getHandle)
                  7000f39c    00000004     --HOLE-- [fill = 0]
                  7000f3a0    0000002a                                                : ospi_v0.obj (.text.OSPI_setDeviceSize)
                  7000f3ca    00000006     --HOLE-- [fill = 0]
                  7000f3d0    0000002a                                                : soc.obj (.text.SOC_controlModuleLockMMR)
                  7000f3fa    00000006     --HOLE-- [fill = 0]
                  7000f400    0000002a                                                : udma_utils.obj (.text.Udma_phyToVirtFxn)
                  7000f42a    00000006     --HOLE-- [fill = 0]
                  7000f430    0000002a                                                : crc16.obj (.text.crc16_ccitt)
                  7000f45a    00000006     --HOLE-- [fill = 0]
                  7000f460    00000028     nortos.am64x.r5f.ti-arm-clang.release.lib : ClockP_nortos.obj (.text.ClockP_sleepTicks)
                  7000f488    00000008     --HOLE-- [fill = 0]
                  7000f490    00000028     drivers.am64x.r5f.ti-arm-clang.release.lib : udma_ch.obj (.text.Udma_chGetCqRingHandle)
                  7000f4b8    00000008     --HOLE-- [fill = 0]
                  7000f4c0    00000028                                                : udma_ch.obj (.text.Udma_chGetFqRingHandle)
                  7000f4e8    00000008     --HOLE-- [fill = 0]
                  7000f4f0    00000028                                                : udma_ring_lcdma.obj (.text.Udma_ringGetForwardRingOccLcdma)
                  7000f518    00000008     --HOLE-- [fill = 0]
                  7000f520    00000028                                                : udma_ring_lcdma.obj (.text.Udma_ringGetReverseRingOccLcdma)
                  7000f548    00000008     --HOLE-- [fill = 0]
                  7000f550    00000026                                                : csl_bcdma.obj (.text.CSL_bcdmaGetChanPeerReg)
                  7000f576    0000000a     --HOLE-- [fill = 0]
                  7000f580    00000026                                                : mmcsd_priv.obj (.text.MMCSD_parseSCRSd)
                  7000f5a6    0000000a     --HOLE-- [fill = 0]
                  7000f5b0    00000026                                                : udma_ring_lcdma.obj (.text.Udma_ringPrimeLcdma)
                  7000f5d6    0000000a     --HOLE-- [fill = 0]
                  7000f5e0    00000024                                                : ospi_dma.obj (.text.OSPI_dmaCopy)
                  7000f604    0000000c     --HOLE-- [fill = 0]
                  7000f610    00000024                                                : uart_v0.obj (.text.UART_statusIsDataReady)
                  7000f634    00000024     libclang_rt.builtins.a : aeabi_uldivmod.S.obj (.text)
                  7000f658    00000008     --HOLE-- [fill = 0]
                  7000f660    00000022     drivers.am64x.r5f.ti-arm-clang.release.lib : csl_bcdma.obj (.text.CSL_bcdmaChanOpIsChanEnabled)
                  7000f682    0000000e     --HOLE-- [fill = 0]
                  7000f690    00000022                                                : csl_bcdma.obj (.text.CSL_bcdmaSetChanPeerReg)
                  7000f6b2    0000000e     --HOLE-- [fill = 0]
                  7000f6c0    00000022                                                : ospi_v0.obj (.text.OSPI_setNumAddrBytes)
                  7000f6e2    0000000e     --HOLE-- [fill = 0]
                  7000f6f0    00000022     ti_pinmux_config.obj (.text.Pinmux_init)
                  7000f712    0000000e     --HOLE-- [fill = 0]
                  7000f720    00000022     drivers.am64x.r5f.ti-arm-clang.release.lib : udma_utils.obj (.text.Udma_virtToPhyFxn)
                  7000f742    0000000e     --HOLE-- [fill = 0]
                  7000f750    00000020                                                : csl_bcdma.obj (.text.CSL_bcdmaTeardownRxChan)
                  7000f770    00000020                                                : csl_bcdma.obj (.text.CSL_bcdmaTeardownTxChan)
                  7000f790    00000020                                                : csl_pktdma.obj (.text.CSL_pktdmaSetRxRT)
                  7000f7b0    00000020                                                : csl_pktdma.obj (.text.CSL_pktdmaSetTxRT)
                  7000f7d0    00000020     nortos.am64x.r5f.ti-arm-clang.release.lib : DebugP_log.obj (.text.DebugP_logZoneEnable)
                  7000f7f0    00000020     board.am64x.r5f.ti-arm-clang.release.lib : flash.obj (.text.Flash_getAttrs)
                  7000f810    00000020                                              : flash.obj (.text.Flash_getHandle)
                  7000f830    00000020     drivers.am64x.r5f.ti-arm-clang.release.lib : udma_utils.obj (.text.UdmaUtils_makeTrpdTr15)
                  7000f850    00000020     nortos.am64x.r5f.ti-arm-clang.release.lib : printf.obj (.text.vprintf_)
                  7000f870    00000020     libc.a : wcslen.c.obj (.text.wcslen)
                  7000f890    0000001e     board.am64x.r5f.ti-arm-clang.release.lib : flash.obj (.text.Flash_read)
                  7000f8ae    00000002     --HOLE-- [fill = 0]
                  7000f8b0    0000001e                                              : flash.obj (.text.Flash_write)
                  7000f8ce    00000002     --HOLE-- [fill = 0]
                  7000f8d0    0000001e     drivers.am64x.r5f.ti-arm-clang.release.lib : ospi_v0.obj (.text.OSPI_enableDacMode)
                  7000f8ee    00000002     --HOLE-- [fill = 0]
                  7000f8f0    0000001e     nortos.am64x.r5f.ti-arm-clang.release.lib : TimerP.obj (.text.TimerP_Params_init)
                  7000f90e    00000002     --HOLE-- [fill = 0]
                  7000f910    0000001e     drivers.am64x.r5f.ti-arm-clang.release.lib : udma_ring_lcdma.obj (.text.Udma_ringDequeueRawLcdma)
                  7000f92e    00000002     --HOLE-- [fill = 0]
                  7000f930    0000001e                                                : udma_ring_common.obj (.text.Udma_ringGetNum)
                  7000f94e    00000002     --HOLE-- [fill = 0]
                  7000f950    0000001e                                                : udma_ring_lcdma.obj (.text.Udma_ringQueueRawLcdma)
                  7000f96e    00000002     --HOLE-- [fill = 0]
                  7000f970    0000001c                                                : csl_lcdma_ringacc.obj (.text.CSL_lcdma_ringaccPush64)
                  7000f98c    00000004     --HOLE-- [fill = 0]
                  7000f990    0000001c                                                : ospi_v0.obj (.text.OSPI_setRdDataCaptureDelay)
                  7000f9ac    00000004     --HOLE-- [fill = 0]
                  7000f9b0    0000001c                                                : udma_utils.obj (.text.UdmaUtils_getRingMemSize)
                  7000f9cc    00000004     --HOLE-- [fill = 0]
                  7000f9d0    0000001c     nortos.am64x.r5f.ti-arm-clang.release.lib : boot_armv7r.obj (.text._system_pre_init)
                  7000f9ec    0000001c     libc.a : _printfi.c.obj (.text.strlen)
                  7000fa08    0000001c     libsysbm.a : memcpy32.S.obj (.text:TI_memcpy_small)
                  7000fa24    0000001c     libclang_rt.builtins.a : aeabi_memset.S.obj (.text)
                  7000fa40    0000001a     drivers.am64x.r5f.ti-arm-clang.release.lib : csl_pktdma.obj (.text.CSL_pktdmaGetChanPeerReg)
                  7000fa5a    00000006     --HOLE-- [fill = 0]
                  7000fa60    0000001a                                                : csl_pktdma.obj (.text.CSL_pktdmaSetChanPeerReg)
                  7000fa7a    00000006     --HOLE-- [fill = 0]
                  7000fa80    0000001a                                                : uart_dma.obj (.text.UART_readInterruptDma)
                  7000fa9a    00000006     --HOLE-- [fill = 0]
                  7000faa0    0000001a                                                : uart_dma.obj (.text.UART_writeInterruptDma)
                  7000faba    00000006     --HOLE-- [fill = 0]
                  7000fac0    0000001a                                                : udma_rmcfg.obj (.text.Udma_rmGetDefBoardCfgPrms)
                  7000fada    00000006     --HOLE-- [fill = 0]
                  7000fae0    00000018                                                : lpddr4.obj (.text.LPDDR4_Init)
                  7000faf8    00000008     --HOLE-- [fill = 0]
                  7000fb00    00000018                                                : ospi_v0.obj (.text.OSPI_disablePhyPipeline)
                  7000fb18    00000008     --HOLE-- [fill = 0]
                  7000fb20    00000018                                                : ospi_dma.obj (.text.OSPI_dmaClose)
                  7000fb38    00000008     --HOLE-- [fill = 0]
                  7000fb40    00000018                                                : ospi_v0.obj (.text.OSPI_enableDDR)
                  7000fb58    00000008     --HOLE-- [fill = 0]
                  7000fb60    00000018                                                : ospi_v0.obj (.text.OSPI_enableSDR)
                  7000fb78    00000008     --HOLE-- [fill = 0]
                  7000fb80    00000018                                                : ospi_v0.obj (.text.OSPI_setCmdDummyCycles)
                  7000fb98    00000008     --HOLE-- [fill = 0]
                  7000fba0    00000018                                                : sciclient_soc_priv.obj (.text.Sciclient_getDevId)
                  7000fbb8    00000008     --HOLE-- [fill = 0]
                  7000fbc0    00000018                                                : udma_ring_lcdma.obj (.text.Udma_ringGetElementCntLcdma)
                  7000fbd8    00000008     --HOLE-- [fill = 0]
                  7000fbe0    00000018                                                : udma_ring_lcdma.obj (.text.Udma_ringGetMemPtrLcdma)
                  7000fbf8    00000008     --HOLE-- [fill = 0]
                  7000fc00    00000018                                                : udma_ring_lcdma.obj (.text.Udma_ringGetModeLcdma)
                  7000fc18    00000008     --HOLE-- [fill = 0]
                  7000fc20    00000018                                                : udma_ring_lcdma.obj (.text.Udma_ringGetRdIdxLcdma)
                  7000fc38    00000008     --HOLE-- [fill = 0]
                  7000fc40    00000018                                                : udma_ring_lcdma.obj (.text.Udma_ringGetWrIdxLcdma)
                  7000fc58    00000018     libsysbm.a : memset32.S.obj (.text:TI_memset_small)
                  7000fc70    00000016     drivers.am64x.r5f.ti-arm-clang.release.lib : csl_bcdma.obj (.text.CSL_bcdmaGetRxRT)
                  7000fc86    0000000a     --HOLE-- [fill = 0]
                  7000fc90    00000016                                                : csl_bcdma.obj (.text.CSL_bcdmaGetTxRT)
                  7000fca6    0000000a     --HOLE-- [fill = 0]
                  7000fcb0    00000016                                                : csl_bcdma.obj (.text.CSL_bcdmaSetRxRT)
                  7000fcc6    0000000a     --HOLE-- [fill = 0]
                  7000fcd0    00000016                                                : csl_bcdma.obj (.text.CSL_bcdmaSetTxRT)
                  7000fce6    0000000a     --HOLE-- [fill = 0]
                  7000fcf0    00000016                                                : ospi_v0.obj (.text.OSPI_ReadCmdParams_init)
                  7000fd06    0000000a     --HOLE-- [fill = 0]
                  7000fd10    00000016                                                : ospi_v0.obj (.text.OSPI_WriteCmdParams_init)
                  7000fd26    0000000a     --HOLE-- [fill = 0]
                  7000fd30    00000014     board.am64x.r5f.ti-arm-clang.release.lib : flash.obj (.text.Flash_getPhyTuningOffset)
                  7000fd44    0000000c     --HOLE-- [fill = 0]
                  7000fd50    00000014     drivers.am64x.r5f.ti-arm-clang.release.lib : ospi_v0.obj (.text.OSPI_Transaction_init)
                  7000fd64    0000000c     --HOLE-- [fill = 0]
                  7000fd70    00000014                                                : ospi_v0.obj (.text.OSPI_setReadDummyCycles)
                  7000fd84    0000000c     --HOLE-- [fill = 0]
                  7000fd90    00000012                                                : csl_lcdma_ringacc.obj (.text.CSL_lcdma_ringaccGetReverseRingOcc)
                  7000fda2    0000000e     --HOLE-- [fill = 0]
                  7000fdb0    00000012     ti_drivers_open_close.obj (.text.Drivers_open)
                  7000fdc2    0000000e     --HOLE-- [fill = 0]
                  7000fdd0    00000012     board.am64x.r5f.ti-arm-clang.release.lib : flash.obj (.text.Flash_eraseBlk)
                  7000fde2    0000000e     --HOLE-- [fill = 0]
                  7000fdf0    00000012     drivers.am64x.r5f.ti-arm-clang.release.lib : mmcsd_v0.obj (.text.MMCSD_getBlockSize)
                  7000fe02    0000000e     --HOLE-- [fill = 0]
                  7000fe10    00000010                                                : csl_lcdma_ringacc.obj (.text.CSL_lcdma_ringaccIsTeardownComplete)
                  7000fe20    00000010                                                : csl_lcdma_ringacc.obj (.text.CSL_lcdma_ringaccPop64)
                  7000fe30    00000010                                                : lpddr4.obj (.text.LPDDR4_Probe)
                  7000fe40    00000010                                                : ospi_phy.obj (.text.OSPI_phyGetTuningData)
                  7000fe50    00000010                                                : ospi_v0.obj (.text.OSPI_setDualOpCodeMode)
                  7000fe60    00000010     nortos.am64x.r5f.ti-arm-clang.release.lib : TimerP.obj (.text.TimerP_clearOverflowInt)
                  7000fe70    00000010     drivers.am64x.r5f.ti-arm-clang.release.lib : udma_rm.obj (.text.Udma_rmTranslateCoreIntrInput)
                  7000fe80    00000010                                                : udma_rm.obj (.text.Udma_rmTranslateIrOutput)
                  7000fe90    0000000e                                                : csl_lcdma_ringacc.obj (.text.CSL_lcdma_ringaccGetForwardRingOcc)
                  7000fe9e    00000002     --HOLE-- [fill = 0]
                  7000fea0    0000000e                                                : csl_lcdma_ringacc.obj (.text.CSL_lcdma_ringaccInitRingObj)
                  7000feae    00000002     --HOLE-- [fill = 0]
                  7000feb0    0000000e     board.am64x.r5f.ti-arm-clang.release.lib : flash.obj (.text.Flash_close)
                  7000febe    00000002     --HOLE-- [fill = 0]
                  7000fec0    0000000e     ti_power_clock_config.obj (.text.PowerClock_init)
                  7000fece    00000002     --HOLE-- [fill = 0]
                  7000fed0    0000000c     nortos.am64x.r5f.ti-arm-clang.release.lib : ClockP_nortos.obj (.text.ClockP_getTicks)
                  7000fedc    00000004     --HOLE-- [fill = 0]
                  7000fee0    0000000c     drivers.am64x.r5f.ti-arm-clang.release.lib : ospi_v0.obj (.text.OSPI_getFlashDataBaseAddr)
                  7000feec    00000004     --HOLE-- [fill = 0]
                  7000fef0    0000000c                                                : sciclient.obj (.text.Sciclient_getSelfDevIdCore)
                  7000fefc    00000004     --HOLE-- [fill = 0]
                  7000ff00    0000000a                                                : csl_sec_proxy.obj (.text.CSL_secProxyGetDataAddr)
                  7000ff0a    00000006     --HOLE-- [fill = 0]
                  7000ff10    0000000a     nortos.am64x.r5f.ti-arm-clang.release.lib : ClockP_nortos.obj (.text.ClockP_Params_init)
                  7000ff1a    00000006     --HOLE-- [fill = 0]
                  7000ff20    0000000a                                               : ClockP_nortos.obj (.text.ClockP_isActive)
                  7000ff2a    00000006     --HOLE-- [fill = 0]
                  7000ff30    0000000a     drivers.am64x.r5f.ti-arm-clang.release.lib : ospi_v0.obj (.text.OSPI_setPhyEnableSuccess)
                  7000ff3a    00000006     --HOLE-- [fill = 0]
                  7000ff40    0000000a     nortos.am64x.r5f.ti-arm-clang.release.lib : TimerP.obj (.text.TimerP_start)
                  7000ff4a    00000006     --HOLE-- [fill = 0]
                  7000ff50    0000000a                                               : printf.obj (.text._out_char)
                  7000ff5a    00000006     --HOLE-- [fill = 0]
                  7000ff60    00000008     board.am64x.r5f.ti-arm-clang.release.lib : flash_nor_xspi.obj (.text.Flash_norXspiClose)
                  7000ff68    00000008     --HOLE-- [fill = 0]
                  7000ff70    00000008     drivers.am64x.r5f.ti-arm-clang.release.lib : ospi_v0.obj (.text.OSPI_setCmdExtType)
                  7000ff78    00000008     --HOLE-- [fill = 0]
                  7000ff80    00000008                                                : udma_ring_lcdma.obj (.text.Udma_ringHandleClearRegsLcdma)
                  7000ff88    00000008     --HOLE-- [fill = 0]
                  7000ff90    00000006                                                : csl_pktdma.obj (.text.CSL_pktdmaTeardownRxChan)
                  7000ff96    0000000a     --HOLE-- [fill = 0]
                  7000ffa0    00000006                                                : csl_pktdma.obj (.text.CSL_pktdmaTeardownTxChan)
                  7000ffa6    0000000a     --HOLE-- [fill = 0]
                  7000ffb0    00000006                                                : ospi_v0.obj (.text.OSPI_getXferLines)
                  7000ffb6    0000000a     --HOLE-- [fill = 0]
                  7000ffc0    00000006                                                : ospi_v0.obj (.text.OSPI_isDtrEnable)
                  7000ffc6    0000000a     --HOLE-- [fill = 0]
                  7000ffd0    00000006                                                : ospi_v0.obj (.text.OSPI_isPhyEnable)
                  7000ffd6    0000000a     --HOLE-- [fill = 0]
                  7000ffe0    00000006                                                : udma_rm.obj (.text.Udma_rmAllocFreeRing)
                  7000ffe6    0000000a     --HOLE-- [fill = 0]
                  7000fff0    00000004     ti_board_open_close.obj (.text.Board_driversOpen)
                  7000fff4    0000000c     --HOLE-- [fill = 0]
                  70010000    00000004     drivers.am64x.r5f.ti-arm-clang.release.lib : bootloader_soc.obj (.text.Bootloader_socWaitForFWBoot)
                  70010004    0000000c     --HOLE-- [fill = 0]
                  70010010    00000004                                                : lpddr4.obj (.text.CPS_UncachedRead32)
                  70010014    0000000c     --HOLE-- [fill = 0]
                  70010020    00000004                                                : lpddr4.obj (.text.CPS_UncachedWrite32)
                  70010024    0000000c     --HOLE-- [fill = 0]
                  70010030    00000004     nortos.am64x.r5f.ti-arm-clang.release.lib : ClockP_nortos_r5.obj (.text.ClockP_getTimerCount)
                  70010034    0000000c     --HOLE-- [fill = 0]
                  70010040    00000004                                               : ClockP_nortos_r5.obj (.text.ClockP_timerClearOverflowInt)
                  70010044    0000000c     --HOLE-- [fill = 0]
                  70010050    00000004     drivers.am64x.r5f.ti-arm-clang.release.lib : sciclient_rm.obj (.text.Sciclient_rmIrqSet)
                  70010054    0000000c     --HOLE-- [fill = 0]
                  70010060    00000004                                                : sciclient_rm.obj (.text.Sciclient_rmIrqTranslateIaOutput)
                  70010064    0000000c     --HOLE-- [fill = 0]
                  70010070    00000004     nortos.am64x.r5f.ti-arm-clang.release.lib : TimerP.obj (.text.TimerP_getCount)
                  70010074    0000000c     --HOLE-- [fill = 0]
                  70010080    00000004                                               : TimerP.obj (.text.TimerP_getReloadCount)
                  70010084    0000000c     --HOLE-- [fill = 0]
                  70010090    00000004     drivers.am64x.r5f.ti-arm-clang.release.lib : udma_utils.obj (.text.Udma_defaultVirtToPhyFxn)
                  70010094    0000000c     --HOLE-- [fill = 0]
                  700100a0    00000004                                                : udma_soc.obj (.text.Udma_isCacheCoherent)
                  700100a4    0000000c     --HOLE-- [fill = 0]
                  700100b0    00000004     libclang_rt.builtins.a : aeabi_div0.c.obj (.text.__aeabi_idiv0)
                  700100b4    0000000c     --HOLE-- [fill = 0]
                  700100c0    00000004                            : aeabi_div0.c.obj (.text.__aeabi_ldiv0)
                  700100c4    0000000c     --HOLE-- [fill = 0]
                  700100d0    00000002     drivers.am64x.r5f.ti-arm-clang.release.lib : mmcsd_v0.obj (.text.MMCSD_isr)
                  700100d2    0000000e     --HOLE-- [fill = 0]
                  700100e0    00000002                                                : ospi_v0.obj (.text.OSPI_isr)
                  700100e2    0000000e     --HOLE-- [fill = 0]
                  700100f0    00000002     nortos.am64x.r5f.ti-arm-clang.release.lib : SemaphoreP_nortos.obj (.text.SemaphoreP_destruct)
                  700100f2    0000000e     --HOLE-- [fill = 0]
                  70010100    00000002                                               : TaskP_nortos.obj (.text.TaskP_yield)
                  70010102    0000000e     --HOLE-- [fill = 0]
                  70010110    00000002     drivers.am64x.r5f.ti-arm-clang.release.lib : udma_utils.obj (.text.Udma_defaultPhyToVirtFxn)
                  70010112    0000000e     --HOLE-- [fill = 0]
                  70010120    00000002                                                : udma_rm.obj (.text.Udma_rmFreeFreeRing)
                  70010122    0000000e     --HOLE-- [fill = 0]
                  70010130    00000002     nortos.am64x.r5f.ti-arm-clang.release.lib : printf.obj (.text._out_null)
                  70010132    0000000e     --HOLE-- [fill = 0]
                  70010140    00000002     ti_dpl_config.obj (.text.putchar_)
                  70010142    0000000e     --HOLE-- [fill = 0]

.text.hwi 
*          0    70010150    00000770     
                  70010150    00000442     nortos.am64x.r5f.ti-arm-clang.release.lib : HwiP_armv7r_vim.obj (.text.hwi)
                  70010592    00000002     --HOLE-- [fill = 0]
                  70010594    00000008                                               : HwiP_armv7r_asm.obj (.tramp.HwiP_enableFIQ.1)
                  7001059c    00000004     --HOLE-- [fill = 0]
                  700105a0    0000022e                                               : HwiP_armv7r_handlers_nortos.obj (.text.hwi)
                  700107ce    00000002     --HOLE-- [fill = 0]
                  700107d0    00000078                                               : HwiP_armv7r_handlers_nortos_asm.obj (.text.hwi)
                  70010848    00000070                                               : HwiP_armv7r_asm.obj (.text.hwi)
                  700108b8    00000008     --HOLE-- [fill = 0]

.text.cache 
*          0    700108c0    00000460     
                  700108c0    00000340     nortos.am64x.r5f.ti-arm-clang.release.lib : CacheP_armv7r_asm.obj (.text.cache)
                  70010c00    00000106                                               : CacheP_armv7r.obj (.text.cache)
                  70010d06    00000002     --HOLE-- [fill = 0]
                  70010d08    00000008                                               : CacheP_armv7r_asm.obj (.tramp.CacheP_invL1d.1)
                  70010d10    00000008                                               : HwiP_armv7r_asm.obj (.tramp.HwiP_restore.2)
                  70010d18    00000008                                               : CacheP_armv7r_asm.obj (.tramp.CacheP_enableL1p.1)

.text.mpu 
*          0    70010d20    00000240     
                  70010d20    000001b4     nortos.am64x.r5f.ti-arm-clang.release.lib : MpuP_armv7r.obj (.text.mpu)
                  70010ed4    00000078                                               : MpuP_armv7r_asm.obj (.text.mpu)
                  70010f4c    00000008                                               : MpuP_armv7r_asm.obj (.tramp.MpuP_isEnableAsm.1)
                  70010f54    00000008                                               : HwiP_armv7r_asm.obj (.tramp.HwiP_restore.3)
                  70010f5c    00000004     --HOLE-- [fill = 0]

.text.boot 
*          0    70010f60    00000130     
                  70010f60    000000fc     nortos.am64x.r5f.ti-arm-clang.release.lib : boot_armv7r_asm.obj (.text.boot)
                  7001105c    00000004     --HOLE-- [fill = 0]
                  70011060    0000001e                                               : DebugP_log.obj (.text.boot)
                  7001107e    00000002     --HOLE-- [fill = 0]
                  70011080    0000000e     ti_dpl_config.obj (.text.boot)
                  7001108e    00000002     --HOLE-- [fill = 0]

.data      0    70011090    00002690     
                  70011090    000007ec     ti_drivers_config.obj (.data.DDRSS_phyReg)
                  7001187c    0000069c     ti_drivers_config.obj (.data.DDRSS_ctlReg)
                  70011f18    00000564     ti_drivers_config.obj (.data.DDRSS_phyIndepReg)
                  7001247c    000003f6     ti_drivers_config.obj (.data.DDRSS_phyRegNum)
                  70012872    0000034e     ti_drivers_config.obj (.data.DDRSS_ctlRegNum)
                  70012bc0    000002b2     ti_drivers_config.obj (.data.DDRSS_phyIndepRegNum)
                  70012e72    000000b8     drivers.am64x.r5f.ti-arm-clang.release.lib : sciclient_irq_rm.obj (.data.vint_usage_count_DMASS0_INTAGGR_0)
                  70012f2a    00000001                                                : sciclient.obj (.data.gSecHeaderSizeWords)
                  70012f2b    00000001     --HOLE-- [fill = 0]
                  70012f2c    0000009c                                                : mmcsd_v0.obj (.data.gMmcsdDrvObj)
                  70012fc8    0000009c                                                : ospi_v0.obj (.data.gOspiDrvObj)
                  70013064    0000009c                                                : uart_v0.obj (.data.gUartDrvObj)
                  70013100    00000080                                                : ospi_phy.obj (.data.gOspiFlashAttackVector)
                  70013180    00000080                                                : ospi_phy.obj (.data.gReadBuf)
                  70013200    00000070     ti_pinmux_config.obj (.data.gPinMuxMainDomainCfg)
                  70013270    00000060     drivers.am64x.r5f.ti-arm-clang.release.lib : sciclient_irq_rm.obj (.data.gRmIrInstances)
                  700132d0    00000058                                                : udma_rmcfg.obj (.data.gUdmaRmSharedResPrms)
                  70013328    00000054     ti_drivers_open_close.obj (.data.gUartParams)
                  7001337c    00000050     ti_dpl_config.obj (.data.gMpuRegionConfig)
                  700133cc    00000050     ti_drivers_config.obj (.data.gOspiAttrs)
                  7001341c    00000048     board.am64x.r5f.ti-arm-clang.release.lib : flash_nor_xspi_device_S28HS512T.obj (.data.gFlashNorXspiDeviceDefines_S28HS512T)
                  70013464    0000003c     ti_drivers_config.obj (.data.gMmcsdAttrs)
                  700134a0    00000030     ti_drivers_config.obj (.data.gDdrParams)
                  700134d0    00000030     ti_power_clock_config.obj (.data.gSocModulesClockFrequency)
                  70013500    00000028     board.am64x.r5f.ti-arm-clang.release.lib : flash_nor_xspi_device_S28HS512T.obj (.data.gFlashNorXspiAttrs_S28HS512T)
                  70013528    00000028     drivers.am64x.r5f.ti-arm-clang.release.lib : ospi_phy.obj (.data.gPhyTuneWindowParamsGTE133)
                  70013550    00000028                                                : ospi_phy.obj (.data.gPhyTuneWindowParamsLT133)
                  70013578    00000020     ti_drivers_config.obj (.data.gOspiDmaRestrictRegions)
                  70013598    00000020     drivers.am64x.r5f.ti-arm-clang.release.lib : sciclient_irq_rm.obj (.data.gRmIaInstances)
                  700135b8    00000020                                                : sciclient_soc_priv.obj (.data.gSciclientSecProxyCfg)
                  700135d8    00000020     ti_power_clock_config.obj (.data.gSocModules)
                  700135f8    0000001c     ti_drivers_config.obj (.data.gOspiUdma0Args)
                  70013614    00000014     ti_dpl_config.obj (.data.gClockConfig)
                  70013628    00000014     board.am64x.r5f.ti-arm-clang.release.lib : flash_nor_xspi.obj (.data.gFlashNorXspiFxns)
                  7001363c    00000014     drivers.am64x.r5f.ti-arm-clang.release.lib : sciclient_irq_rm.obj (.data.rom_usage_DMASS0_INTAGGR_0)
                  70013650    00000010     ti_board_open_close.obj (.data.gFlashConfig)
                  70013660    00000010     ti_drivers_config.obj (.data.gUdmaInitPrms)
                  70013670    0000000c     nortos.am64x.r5f.ti-arm-clang.release.lib : AddrTranslateP.obj (.data.gAddrTranslateConfig)
                  7001367c    0000000c     ti_dpl_config.obj (.data.gMpuConfig)
                  70013688    0000000c     drivers.am64x.r5f.ti-arm-clang.release.lib : ospi_dma_udma.obj (.data.gOspiDmaUdmaFxns)
                  70013694    00000008     ti_dpl_config.obj (.data.gCacheConfig)
                  7001369c    00000008     ti_drivers_config.obj (.data.gMmcsdConfig)
                  700136a4    00000008     ti_drivers_open_close.obj (.data.gMmcsdParams)
                  700136ac    00000008     ti_drivers_config.obj (.data.gOspiConfig)
                  700136b4    00000008     ti_drivers_config.obj (.data.gOspiDmaConfig)
                  700136bc    00000008     ti_pinmux_config.obj (.data.gPinMuxMcuDomainCfg)
                  700136c4    00000008     ti_drivers_config.obj (.data.gUartAttrs)
                  700136cc    00000008     ti_drivers_config.obj (.data.gUartConfig)
                  700136d4    00000004     libc.a : aeabi_portable.c.obj (.data.__aeabi_errno)
                  700136d8    00000004     nortos.am64x.r5f.ti-arm-clang.release.lib : CacheP_armv7r.obj (.data.gCacheL1dCacheLineSize)
                  700136dc    00000004                                               : CacheP_armv7r.obj (.data.gCacheL1pCacheLineSize)
                  700136e0    00000004                                               : DebugP_log.obj (.data.gDebugLogZone)
                  700136e4    00000004     ti_board_open_close.obj (.data.gFlashConfigNum)
                  700136e8    00000004     ti_dpl_config.obj (.data.gHwiConfig)
                  700136ec    00000004     ti_drivers_config.obj (.data.gMmcsdConfigNum)
                  700136f0    00000004     ti_drivers_config.obj (.data.gOspiConfigNum)
                  700136f4    00000004     ti_drivers_config.obj (.data.gOspiDmaConfigNum)
                  700136f8    00000004     ti_drivers_open_close.obj (.data.gOspiParams)
                  700136fc    00000004     drivers.am64x.r5f.ti-arm-clang.release.lib : ospi_phy.obj (.data.gPhyTuneWindowParams)
                  70013700    00000004                                                : sciclient.obj (.data.gSciclientHandle.0)
                  70013704    00000004                                                : sciclient.obj (.data.gSciclientHandle.2)
                  70013708    00000004                                                : sciclient.obj (.data.gSciclientHandle.3)
                  7001370c    00000004                                                : sciclient.obj (.data.gSciclientHandle.4)
                  70013710    00000004                                                : sciclient.obj (.data.gSciclientHandle.5)
                  70013714    00000004     ti_drivers_config.obj (.data.gUartConfigNum)
                  70013718    00000004     ti_drivers_config.obj (.data.gUartDmaConfigNum)
                  7001371c    00000004     --HOLE-- [fill = 0]

.rodata    0    70013720    00001b20     
                  70013720    00000200     drivers.am64x.r5f.ti-arm-clang.release.lib : crc16.obj (.rodata.crc16tab)
                  70013920    000001a4                                                : udma_rmcfg.obj (.rodata.gUdmaRmDefBoardCfg_Pktdma)
                  70013ac4    000001a2                                                : ddr.obj (.rodata.str1.1)
                  70013c66    00000002     --HOLE-- [fill = 0]
                  70013c68    00000138                                                : udma_soc.obj (.rodata.gUdmaTxMappedChRingAttributes)
                  70013da0    00000135                                                : uart_v0.obj (.rodata.str1.1)
                  70013ed5    00000001     --HOLE-- [fill = 0]
                  70013ed6    00000132                                                : lpddr4_16bit.obj (.rodata.CtlIntMap)
                  70014008    0000012c                                                : sciclient_fmwSecureProxyMap.obj (.rodata.gSciclientMap)
                  70014134    00000103     nortos.am64x.r5f.ti-arm-clang.release.lib : TimerP.obj (.rodata.str1.1)
                  70014237    00000001     --HOLE-- [fill = 0]
                  70014238    00000008     drivers.am64x.r5f.ti-arm-clang.release.lib : sciclient_irq_rm.obj (.rodata.CMP_EVENT_INTROUTER0_outp_0_15_to_GICSS0_spi_48_63)
                  70014240    00000101     libc.a : aeabi_ctype.S.obj (.rodata)
                  70014341    000000d4     ti_drivers_open_close.obj (.rodata.str1.1)
                  70014415    000000d2     drivers.am64x.r5f.ti-arm-clang.release.lib : ospi_dma_udma.obj (.rodata.str1.1)
                  700144e7    000000c1     board.am64x.r5f.ti-arm-clang.release.lib : flash_nor_xspi.obj (.rodata.str1.1)
                  700145a8    000000ac     nortos.am64x.r5f.ti-arm-clang.release.lib : ClockP_nortos_r5.obj (.rodata.str1.1)
                  70014654    0000009c     drivers.am64x.r5f.ti-arm-clang.release.lib : udma_soc.obj (.rodata.gUdmaRxMappedChRingAttributes)
                  700146f0    00000084                                                : udma_rmcfg.obj (.rodata.gUdmaRmDefBoardCfg_Bcdma)
                  70014774    00000084                                                : udma_utils.obj (.rodata.gUdmaUtilsTrSizeTable)
                  700147f8    0000006b     nortos.am64x.r5f.ti-arm-clang.release.lib : SemaphoreP_nortos.obj (.rodata.str1.1)
                  70014863    0000006a     drivers.am64x.r5f.ti-arm-clang.release.lib : mmcsd_v0.obj (.rodata.str1.1)
                  700148cd    00000003     --HOLE-- [fill = 0]
                  700148d0    00000068                                                : sciclient_irq_rm.obj (.rodata.tisci_if_TIMESYNC_EVENT_INTROUTER0)
                  70014938    00000065                                                : ospi_v0.obj (.rodata.str1.1)
                  7001499d    0000005a     nortos.am64x.r5f.ti-arm-clang.release.lib : ClockP_nortos.obj (.rodata.str1.1)
                  700149f7    00000001     --HOLE-- [fill = 0]
                  700149f8    00000058     drivers.am64x.r5f.ti-arm-clang.release.lib : sciclient_irq_rm.obj (.rodata.gRmIrqTree)
                  70014a50    00000050     nortos.am64x.r5f.ti-arm-clang.release.lib : printf.obj (.rodata._ftoa.pow10)
                  70014aa0    0000004b     drivers.am64x.r5f.ti-arm-clang.release.lib : uart_dma.obj (.rodata.str1.1)
                  70014aeb    0000004b     ti_drivers_config.obj (.rodata.str1.1)
                  70014b36    00000046     ti_board_open_close.obj (.rodata.str1.1)
                  70014b7c    00000037     drivers.am64x.r5f.ti-arm-clang.release.lib : mmcsd_priv.obj (.rodata.str1.1)
                  70014bb3    00000001     --HOLE-- [fill = 0]
                  70014bb4    00000034                                                : sciclient_irq_rm.obj (.rodata.tisci_if_MAIN_GPIOMUX_INTROUTER0)
                  70014be8    00000030                                                : mmcsd_priv.obj (.rodata.gMonths)
                  70014c18    00000030                                                : sciclient_irq_rm.obj (.rodata.tisci_if_DMASS0_INTAGGR_0)
                  70014c48    0000002d     nortos.am64x.r5f.ti-arm-clang.release.lib : DebugP_log.obj (.rodata.str1.1)
                  70014c75    00000029     main.obj (.rodata.str1.1)
                  70014c9e    00000002     --HOLE-- [fill = 0]
                  70014ca0    00000024     drivers.am64x.r5f.ti-arm-clang.release.lib : sciclient_irq_rm.obj (.rodata.tisci_if_MCU_MCU_GPIOMUX_INTROUTER0)
                  70014cc4    00000022     libc.a : _printfi.c.obj (.rodata.str1.1)
                  70014ce6    00000002     --HOLE-- [fill = 0]
                  70014ce8    00000020     drivers.am64x.r5f.ti-arm-clang.release.lib : mmcsd_v0.obj (.rodata.cst32)
                  70014d08    00000020                                                : sciclient_irq_rm.obj (.rodata.tisci_if_CPTS0)
                  70014d28    0000001c                                                : sciclient_irq_rm.obj (.rodata.tisci_if_PRU_ICSSG0)
                  70014d44    0000001c                                                : sciclient_irq_rm.obj (.rodata.tisci_if_PRU_ICSSG1)
                  70014d60    00000018                                                : sciclient_soc_priv.obj (.rodata..Lswitch.table.Sciclient_getDevId)
                  70014d78    00000018                                                : sciclient_irq_rm.obj (.rodata.tisci_if_CMP_EVENT_INTROUTER0)
                  70014d90    00000014                                                : sciclient_irq_rm.obj (.rodata.tisci_if_PCIE0)
                  70014da4    00000012     nortos.am64x.r5f.ti-arm-clang.release.lib : printf.obj (.rodata.str1.1)
                  70014db6    00000002     --HOLE-- [fill = 0]
                  70014db8    00000010     drivers.am64x.r5f.ti-arm-clang.release.lib : sciclient_irq_rm.obj (.rodata.tisci_if_CPSW0)
                  70014dc8    00000008                                                : sciclient_irq_rm.obj (.rodata.CMP_EVENT_INTROUTER0_outp_16_23_to_R5FSS0_CORE0_intr_48_55)
                  70014dd0    00000008                                                : sciclient_irq_rm.obj (.rodata.CMP_EVENT_INTROUTER0_outp_16_23_to_R5FSS0_CORE1_intr_48_55)
                  70014dd8    00000008                                                : sciclient_irq_rm.obj (.rodata.CMP_EVENT_INTROUTER0_outp_24_31_to_R5FSS1_CORE0_intr_48_55)
                  70014de0    00000008                                                : sciclient_irq_rm.obj (.rodata.CMP_EVENT_INTROUTER0_outp_24_31_to_R5FSS1_CORE1_intr_48_55)
                  70014de8    00000008                                                : sciclient_irq_rm.obj (.rodata.CMP_EVENT_INTROUTER0_outp_32_39_to_DMASS0_INTAGGR_0_intaggr_levi_pend_0_7)
                  70014df0    00000008                                                : sciclient_irq_rm.obj (.rodata.CPSW0_cpts_comp_0_0_to_CMP_EVENT_INTROUTER0_in_80_80)
                  70014df8    00000008                                                : sciclient_irq_rm.obj (.rodata.CPSW0_cpts_genf0_1_1_to_TIMESYNC_EVENT_INTROUTER0_in_21_21)
                  70014e00    00000008                                                : sciclient_irq_rm.obj (.rodata.CPSW0_cpts_genf1_2_2_to_TIMESYNC_EVENT_INTROUTER0_in_22_22)
                  70014e08    00000008                                                : sciclient_irq_rm.obj (.rodata.CPSW0_cpts_sync_3_3_to_TIMESYNC_EVENT_INTROUTER0_in_34_34)
                  70014e10    00000008                                                : sciclient_irq_rm.obj (.rodata.CPTS0_cpts_comp_0_0_to_CMP_EVENT_INTROUTER0_in_82_82)
                  70014e18    00000008                                                : sciclient_irq_rm.obj (.rodata.CPTS0_cpts_genf0_1_1_to_TIMESYNC_EVENT_INTROUTER0_in_16_16)
                  70014e20    00000008                                                : sciclient_irq_rm.obj (.rodata.CPTS0_cpts_genf1_2_2_to_TIMESYNC_EVENT_INTROUTER0_in_17_17)
                  70014e28    00000008                                                : sciclient_irq_rm.obj (.rodata.CPTS0_cpts_genf2_3_3_to_TIMESYNC_EVENT_INTROUTER0_in_18_18)
                  70014e30    00000008                                                : sciclient_irq_rm.obj (.rodata.CPTS0_cpts_genf3_4_4_to_TIMESYNC_EVENT_INTROUTER0_in_19_19)
                  70014e38    00000008                                                : sciclient_irq_rm.obj (.rodata.CPTS0_cpts_genf4_5_5_to_TIMESYNC_EVENT_INTROUTER0_in_20_20)
                  70014e40    00000008                                                : sciclient_irq_rm.obj (.rodata.CPTS0_cpts_genf5_6_6_to_TIMESYNC_EVENT_INTROUTER0_in_24_24)
                  70014e48    00000008                                                : sciclient_irq_rm.obj (.rodata.CPTS0_cpts_sync_7_7_to_TIMESYNC_EVENT_INTROUTER0_in_35_35)
                  70014e50    00000008                                                : sciclient_irq_rm.obj (.rodata.DMASS0_INTAGGR_0_intaggr_vintr_pend_0_39_to_GICSS0_spi_64_103)
                  70014e58    00000008                                                : sciclient_irq_rm.obj (.rodata.DMASS0_INTAGGR_0_intaggr_vintr_pend_120_127_to_R5FSS1_CORE0_intr_8_15)
                  70014e60    00000008                                                : sciclient_irq_rm.obj (.rodata.DMASS0_INTAGGR_0_intaggr_vintr_pend_128_135_to_R5FSS1_CORE1_intr_8_15)
                  70014e68    00000008                                                : sciclient_irq_rm.obj (.rodata.DMASS0_INTAGGR_0_intaggr_vintr_pend_152_159_to_PRU_ICSSG0_pr1_slv_intr_16_23)
                  70014e70    00000008                                                : sciclient_irq_rm.obj (.rodata.DMASS0_INTAGGR_0_intaggr_vintr_pend_160_167_to_PRU_ICSSG1_pr1_slv_intr_16_23)
                  70014e78    00000008                                                : sciclient_irq_rm.obj (.rodata.DMASS0_INTAGGR_0_intaggr_vintr_pend_168_183_to_MCU_M4FSS0_CORE0_nvic_32_47)
                  70014e80    00000008                                                : sciclient_irq_rm.obj (.rodata.DMASS0_INTAGGR_0_intaggr_vintr_pend_40_71_to_R5FSS0_CORE0_intr_64_95)
                  70014e88    00000008                                                : sciclient_irq_rm.obj (.rodata.DMASS0_INTAGGR_0_intaggr_vintr_pend_40_71_to_R5FSS0_CORE1_intr_64_95)
                  70014e90    00000008                                                : sciclient_irq_rm.obj (.rodata.DMASS0_INTAGGR_0_intaggr_vintr_pend_72_79_to_R5FSS0_CORE0_intr_8_15)
                  70014e98    00000008                                                : sciclient_irq_rm.obj (.rodata.DMASS0_INTAGGR_0_intaggr_vintr_pend_80_87_to_R5FSS0_CORE1_intr_8_15)
                  70014ea0    00000008                                                : sciclient_irq_rm.obj (.rodata.DMASS0_INTAGGR_0_intaggr_vintr_pend_88_119_to_R5FSS1_CORE0_intr_64_95)
                  70014ea8    00000008                                                : sciclient_irq_rm.obj (.rodata.DMASS0_INTAGGR_0_intaggr_vintr_pend_88_119_to_R5FSS1_CORE1_intr_64_95)
                  70014eb0    00000008                                                : sciclient_irq_rm.obj (.rodata.EPWM0_epwm_synco_o_0_0_to_TIMESYNC_EVENT_INTROUTER0_in_39_39)
                  70014eb8    00000008                                                : sciclient_irq_rm.obj (.rodata.EPWM3_epwm_synco_o_0_0_to_TIMESYNC_EVENT_INTROUTER0_in_40_40)
                  70014ec0    00000008                                                : sciclient_irq_rm.obj (.rodata.EPWM6_epwm_synco_o_0_0_to_TIMESYNC_EVENT_INTROUTER0_in_41_41)
                  70014ec8    00000008                                                : sciclient_irq_rm.obj (.rodata.GPIO0_gpio_0_89_to_MAIN_GPIOMUX_INTROUTER0_in_0_89)
                  70014ed0    00000008                                                : sciclient_irq_rm.obj (.rodata.GPIO0_gpio_bank_90_98_to_MAIN_GPIOMUX_INTROUTER0_in_190_198)
                  70014ed8    00000008                                                : sciclient_irq_rm.obj (.rodata.GPIO1_gpio_0_89_to_MAIN_GPIOMUX_INTROUTER0_in_90_179)
                  70014ee0    00000008                                                : sciclient_irq_rm.obj (.rodata.GPIO1_gpio_bank_90_98_to_MAIN_GPIOMUX_INTROUTER0_in_180_188)
                  70014ee8    00000008                                                : sciclient_irq_rm.obj (.rodata.GPMC0_gpmc_sdmareq_0_0_to_DMASS0_INTAGGR_0_intaggr_levi_pend_29_29)
                  70014ef0    00000008                                                : sciclient_irq_rm.obj (.rodata.GTC0_gtc_push_event_0_0_to_TIMESYNC_EVENT_INTROUTER0_in_36_36)
                  70014ef8    00000008                                                : sciclient_irq_rm.obj (.rodata.MAIN_GPIOMUX_INTROUTER0_outp_0_15_to_GICSS0_spi_32_47)
                  70014f00    00000008                                                : sciclient_irq_rm.obj (.rodata.MAIN_GPIOMUX_INTROUTER0_outp_0_15_to_R5FSS0_CORE0_intr_32_47)
                  70014f08    00000008                                                : sciclient_irq_rm.obj (.rodata.MAIN_GPIOMUX_INTROUTER0_outp_0_15_to_R5FSS0_CORE1_intr_32_47)
                  70014f10    00000008                                                : sciclient_irq_rm.obj (.rodata.MAIN_GPIOMUX_INTROUTER0_outp_0_15_to_R5FSS1_CORE0_intr_32_47)
                  70014f18    00000008                                                : sciclient_irq_rm.obj (.rodata.MAIN_GPIOMUX_INTROUTER0_outp_0_15_to_R5FSS1_CORE1_intr_32_47)
                  70014f20    00000008                                                : sciclient_irq_rm.obj (.rodata.MAIN_GPIOMUX_INTROUTER0_outp_16_17_to_DMASS0_INTAGGR_0_intaggr_levi_pend_24_25)
                  70014f28    00000008                                                : sciclient_irq_rm.obj (.rodata.MAIN_GPIOMUX_INTROUTER0_outp_18_23_to_PRU_ICSSG0_pr1_iep0_cap_intr_req_4_9)
                  70014f30    00000008                                                : sciclient_irq_rm.obj (.rodata.MAIN_GPIOMUX_INTROUTER0_outp_18_23_to_PRU_ICSSG1_pr1_iep0_cap_intr_req_4_9)
                  70014f38    00000008                                                : sciclient_irq_rm.obj (.rodata.MAIN_GPIOMUX_INTROUTER0_outp_24_29_to_PRU_ICSSG0_pr1_iep1_cap_intr_req_10_15)
                  70014f40    00000008                                                : sciclient_irq_rm.obj (.rodata.MAIN_GPIOMUX_INTROUTER0_outp_24_29_to_PRU_ICSSG1_pr1_iep1_cap_intr_req_10_15)
                  70014f48    00000008                                                : sciclient_irq_rm.obj (.rodata.MAIN_GPIOMUX_INTROUTER0_outp_30_37_to_DMASS0_INTAGGR_0_intaggr_levi_pend_16_23)
                  70014f50    00000008                                                : sciclient_irq_rm.obj (.rodata.MAIN_GPIOMUX_INTROUTER0_outp_38_45_to_PRU_ICSSG0_pr1_slv_intr_46_53)
                  70014f58    00000008                                                : sciclient_irq_rm.obj (.rodata.MAIN_GPIOMUX_INTROUTER0_outp_46_53_to_PRU_ICSSG1_pr1_slv_intr_46_53)
                  70014f60    00000008                                                : sciclient_irq_rm.obj (.rodata.MCU_GPIO0_gpio_0_29_to_MCU_MCU_GPIOMUX_INTROUTER0_in_0_29)
                  70014f68    00000008                                                : sciclient_irq_rm.obj (.rodata.MCU_GPIO0_gpio_bank_30_31_to_MCU_MCU_GPIOMUX_INTROUTER0_in_30_31)
                  70014f70    00000008                                                : sciclient_irq_rm.obj (.rodata.MCU_MCU_GPIOMUX_INTROUTER0_outp_0_3_to_GICSS0_spi_104_107)
                  70014f78    00000008                                                : sciclient_irq_rm.obj (.rodata.MCU_MCU_GPIOMUX_INTROUTER0_outp_0_3_to_R5FSS0_CORE0_intr_104_107)
                  70014f80    00000008                                                : sciclient_irq_rm.obj (.rodata.MCU_MCU_GPIOMUX_INTROUTER0_outp_0_3_to_R5FSS0_CORE1_intr_104_107)
                  70014f88    00000008                                                : sciclient_irq_rm.obj (.rodata.MCU_MCU_GPIOMUX_INTROUTER0_outp_0_3_to_R5FSS1_CORE0_intr_104_107)
                  70014f90    00000008                                                : sciclient_irq_rm.obj (.rodata.MCU_MCU_GPIOMUX_INTROUTER0_outp_0_3_to_R5FSS1_CORE1_intr_104_107)
                  70014f98    00000008                                                : sciclient_irq_rm.obj (.rodata.MCU_MCU_GPIOMUX_INTROUTER0_outp_4_7_to_MCU_M4FSS0_CORE0_nvic_0_3)
                  70014fa0    00000008                                                : sciclient_irq_rm.obj (.rodata.MCU_MCU_GPIOMUX_INTROUTER0_outp_8_11_to_MCU_ESM0_esm_pls_event0_88_91)
                  70014fa8    00000008                                                : sciclient_irq_rm.obj (.rodata.MCU_MCU_GPIOMUX_INTROUTER0_outp_8_11_to_MCU_ESM0_esm_pls_event1_92_95)
                  70014fb0    00000008                                                : sciclient_irq_rm.obj (.rodata.MCU_MCU_GPIOMUX_INTROUTER0_outp_8_11_to_MCU_ESM0_esm_pls_event2_96_99)
                  70014fb8    00000008                                                : sciclient_irq_rm.obj (.rodata.PCIE0_pcie_cpts_comp_0_0_to_CMP_EVENT_INTROUTER0_in_81_81)
                  70014fc0    00000008                                                : sciclient_irq_rm.obj (.rodata.PCIE0_pcie_cpts_genf0_1_1_to_TIMESYNC_EVENT_INTROUTER0_in_23_23)
                  70014fc8    00000008                                                : sciclient_irq_rm.obj (.rodata.PCIE0_pcie_cpts_hw1_push_2_2_to_TIMESYNC_EVENT_INTROUTER0_in_37_37)
                  70014fd0    00000008                                                : sciclient_irq_rm.obj (.rodata.PCIE0_pcie_cpts_sync_3_3_to_TIMESYNC_EVENT_INTROUTER0_in_33_33)
                  70014fd8    00000008                                                : sciclient_irq_rm.obj (.rodata.PCIE0_pcie_ptm_valid_pulse_4_4_to_TIMESYNC_EVENT_INTROUTER0_in_38_38)
                  70014fe0    00000008                                                : sciclient_irq_rm.obj (.rodata.PRU_ICSSG0_pr1_edc0_sync0_out_0_0_to_TIMESYNC_EVENT_INTROUTER0_in_25_25)
                  70014fe8    00000008                                                : sciclient_irq_rm.obj (.rodata.PRU_ICSSG0_pr1_edc0_sync1_out_1_1_to_TIMESYNC_EVENT_INTROUTER0_in_26_26)
                  70014ff0    00000008                                                : sciclient_irq_rm.obj (.rodata.PRU_ICSSG0_pr1_edc1_sync0_out_2_2_to_TIMESYNC_EVENT_INTROUTER0_in_27_27)
                  70014ff8    00000008                                                : sciclient_irq_rm.obj (.rodata.PRU_ICSSG0_pr1_edc1_sync1_out_3_3_to_TIMESYNC_EVENT_INTROUTER0_in_28_28)
                  70015000    00000008                                                : sciclient_irq_rm.obj (.rodata.PRU_ICSSG0_pr1_host_intr_req_4_11_to_CMP_EVENT_INTROUTER0_in_0_7)
                  70015008    00000008                                                : sciclient_irq_rm.obj (.rodata.PRU_ICSSG0_pr1_iep0_cmp_intr_req_12_27_to_CMP_EVENT_INTROUTER0_in_16_31)
                  70015010    00000008                                                : sciclient_irq_rm.obj (.rodata.PRU_ICSSG0_pr1_iep1_cmp_intr_req_28_43_to_CMP_EVENT_INTROUTER0_in_32_47)
                  70015018    00000008                                                : sciclient_irq_rm.obj (.rodata.PRU_ICSSG1_pr1_edc0_sync0_out_0_0_to_TIMESYNC_EVENT_INTROUTER0_in_29_29)
                  70015020    00000008                                                : sciclient_irq_rm.obj (.rodata.PRU_ICSSG1_pr1_edc0_sync1_out_1_1_to_TIMESYNC_EVENT_INTROUTER0_in_30_30)
                  70015028    00000008                                                : sciclient_irq_rm.obj (.rodata.PRU_ICSSG1_pr1_edc1_sync0_out_2_2_to_TIMESYNC_EVENT_INTROUTER0_in_31_31)
                  70015030    00000008                                                : sciclient_irq_rm.obj (.rodata.PRU_ICSSG1_pr1_edc1_sync1_out_3_3_to_TIMESYNC_EVENT_INTROUTER0_in_32_32)
                  70015038    00000008                                                : sciclient_irq_rm.obj (.rodata.PRU_ICSSG1_pr1_host_intr_req_4_11_to_CMP_EVENT_INTROUTER0_in_8_15)
                  70015040    00000008                                                : sciclient_irq_rm.obj (.rodata.PRU_ICSSG1_pr1_iep0_cmp_intr_req_12_27_to_CMP_EVENT_INTROUTER0_in_48_63)
                  70015048    00000008                                                : sciclient_irq_rm.obj (.rodata.PRU_ICSSG1_pr1_iep1_cmp_intr_req_28_43_to_CMP_EVENT_INTROUTER0_in_64_79)
                  70015050    00000008                                                : sciclient_irq_rm.obj (.rodata.TIMER0_timer_pwm_0_0_to_TIMESYNC_EVENT_INTROUTER0_in_0_0)
                  70015058    00000008                                                : sciclient_irq_rm.obj (.rodata.TIMER1_timer_pwm_0_0_to_TIMESYNC_EVENT_INTROUTER0_in_1_1)
                  70015060    00000008                                                : sciclient_irq_rm.obj (.rodata.TIMER2_timer_pwm_0_0_to_TIMESYNC_EVENT_INTROUTER0_in_2_2)
                  70015068    00000008                                                : sciclient_irq_rm.obj (.rodata.TIMER3_timer_pwm_0_0_to_TIMESYNC_EVENT_INTROUTER0_in_3_3)
                  70015070    00000008                                                : sciclient_irq_rm.obj (.rodata.TIMESYNC_EVENT_INTROUTER0_outl_0_7_to_DMASS0_INTAGGR_0_intaggr_levi_pend_8_15)
                  70015078    00000008                                                : sciclient_irq_rm.obj (.rodata.TIMESYNC_EVENT_INTROUTER0_outl_10_10_to_PRU_ICSSG0_pr1_edc1_latch0_in_2_2)
                  70015080    00000008                                                : sciclient_irq_rm.obj (.rodata.TIMESYNC_EVENT_INTROUTER0_outl_11_11_to_PRU_ICSSG0_pr1_edc1_latch1_in_3_3)
                  70015088    00000008                                                : sciclient_irq_rm.obj (.rodata.TIMESYNC_EVENT_INTROUTER0_outl_12_12_to_PRU_ICSSG1_pr1_edc0_latch0_in_0_0)
                  70015090    00000008                                                : sciclient_irq_rm.obj (.rodata.TIMESYNC_EVENT_INTROUTER0_outl_13_13_to_PRU_ICSSG1_pr1_edc0_latch1_in_1_1)
                  70015098    00000008                                                : sciclient_irq_rm.obj (.rodata.TIMESYNC_EVENT_INTROUTER0_outl_14_14_to_PRU_ICSSG1_pr1_edc1_latch0_in_2_2)
                  700150a0    00000008                                                : sciclient_irq_rm.obj (.rodata.TIMESYNC_EVENT_INTROUTER0_outl_15_15_to_PRU_ICSSG1_pr1_edc1_latch1_in_3_3)
                  700150a8    00000008                                                : sciclient_irq_rm.obj (.rodata.TIMESYNC_EVENT_INTROUTER0_outl_16_16_to_CPTS0_cpts_hw1_push_0_0)
                  700150b0    00000008                                                : sciclient_irq_rm.obj (.rodata.TIMESYNC_EVENT_INTROUTER0_outl_17_17_to_CPTS0_cpts_hw2_push_1_1)
                  700150b8    00000008                                                : sciclient_irq_rm.obj (.rodata.TIMESYNC_EVENT_INTROUTER0_outl_18_18_to_CPTS0_cpts_hw3_push_2_2)
                  700150c0    00000008                                                : sciclient_irq_rm.obj (.rodata.TIMESYNC_EVENT_INTROUTER0_outl_19_19_to_CPTS0_cpts_hw4_push_3_3)
                  700150c8    00000008                                                : sciclient_irq_rm.obj (.rodata.TIMESYNC_EVENT_INTROUTER0_outl_20_20_to_CPTS0_cpts_hw5_push_4_4)
                  700150d0    00000008                                                : sciclient_irq_rm.obj (.rodata.TIMESYNC_EVENT_INTROUTER0_outl_21_21_to_CPTS0_cpts_hw6_push_5_5)
                  700150d8    00000008                                                : sciclient_irq_rm.obj (.rodata.TIMESYNC_EVENT_INTROUTER0_outl_22_22_to_CPTS0_cpts_hw7_push_6_6)
                  700150e0    00000008                                                : sciclient_irq_rm.obj (.rodata.TIMESYNC_EVENT_INTROUTER0_outl_23_23_to_CPTS0_cpts_hw8_push_7_7)
                  700150e8    00000008                                                : sciclient_irq_rm.obj (.rodata.TIMESYNC_EVENT_INTROUTER0_outl_29_29_to_PCIE0_pcie_cpts_hw2_push_0_0)
                  700150f0    00000008                                                : sciclient_irq_rm.obj (.rodata.TIMESYNC_EVENT_INTROUTER0_outl_30_30_to_CPSW0_cpts_hw1_push_0_0)
                  700150f8    00000008                                                : sciclient_irq_rm.obj (.rodata.TIMESYNC_EVENT_INTROUTER0_outl_31_31_to_CPSW0_cpts_hw2_push_1_1)
                  70015100    00000008                                                : sciclient_irq_rm.obj (.rodata.TIMESYNC_EVENT_INTROUTER0_outl_32_32_to_CPSW0_cpts_hw3_push_2_2)
                  70015108    00000008                                                : sciclient_irq_rm.obj (.rodata.TIMESYNC_EVENT_INTROUTER0_outl_33_33_to_CPSW0_cpts_hw4_push_3_3)
                  70015110    00000008                                                : sciclient_irq_rm.obj (.rodata.TIMESYNC_EVENT_INTROUTER0_outl_34_34_to_CPSW0_cpts_hw5_push_4_4)
                  70015118    00000008                                                : sciclient_irq_rm.obj (.rodata.TIMESYNC_EVENT_INTROUTER0_outl_35_35_to_CPSW0_cpts_hw6_push_5_5)
                  70015120    00000008                                                : sciclient_irq_rm.obj (.rodata.TIMESYNC_EVENT_INTROUTER0_outl_36_36_to_CPSW0_cpts_hw7_push_6_6)
                  70015128    00000008                                                : sciclient_irq_rm.obj (.rodata.TIMESYNC_EVENT_INTROUTER0_outl_37_37_to_CPSW0_cpts_hw8_push_7_7)
                  70015130    00000008                                                : sciclient_irq_rm.obj (.rodata.TIMESYNC_EVENT_INTROUTER0_outl_8_8_to_PRU_ICSSG0_pr1_edc0_latch0_in_0_0)
                  70015138    00000008                                                : sciclient_irq_rm.obj (.rodata.TIMESYNC_EVENT_INTROUTER0_outl_9_9_to_PRU_ICSSG0_pr1_edc0_latch1_in_1_1)
                  70015140    00000008                                                : sciclient_irq_rm.obj (.rodata.tisci_if_GPIO0)
                  70015148    00000008                                                : sciclient_irq_rm.obj (.rodata.tisci_if_GPIO1)
                  70015150    00000008                                                : sciclient_irq_rm.obj (.rodata.tisci_if_MCU_GPIO0)
                  70015158    00000008                                                : sciclient_irq_rm.obj (.rodata.tisci_irq_CMP_EVENT_INTROUTER0)
                  70015160    00000008                                                : sciclient_irq_rm.obj (.rodata.tisci_irq_CPSW0)
                  70015168    00000008                                                : sciclient_irq_rm.obj (.rodata.tisci_irq_CPTS0)
                  70015170    00000008                                                : sciclient_irq_rm.obj (.rodata.tisci_irq_DMASS0_INTAGGR_0)
                  70015178    00000008                                                : sciclient_irq_rm.obj (.rodata.tisci_irq_EPWM0)
                  70015180    00000008                                                : sciclient_irq_rm.obj (.rodata.tisci_irq_EPWM3)
                  70015188    00000008                                                : sciclient_irq_rm.obj (.rodata.tisci_irq_EPWM6)
                  70015190    00000008                                                : sciclient_irq_rm.obj (.rodata.tisci_irq_GPIO0)
                  70015198    00000008                                                : sciclient_irq_rm.obj (.rodata.tisci_irq_GPIO1)
                  700151a0    00000008                                                : sciclient_irq_rm.obj (.rodata.tisci_irq_GPMC0)
                  700151a8    00000008                                                : sciclient_irq_rm.obj (.rodata.tisci_irq_GTC0)
                  700151b0    00000008                                                : sciclient_irq_rm.obj (.rodata.tisci_irq_MAIN_GPIOMUX_INTROUTER0)
                  700151b8    00000008                                                : sciclient_irq_rm.obj (.rodata.tisci_irq_MCU_GPIO0)
                  700151c0    00000008                                                : sciclient_irq_rm.obj (.rodata.tisci_irq_MCU_MCU_GPIOMUX_INTROUTER0)
                  700151c8    00000008                                                : sciclient_irq_rm.obj (.rodata.tisci_irq_PCIE0)
                  700151d0    00000008                                                : sciclient_irq_rm.obj (.rodata.tisci_irq_PRU_ICSSG0)
                  700151d8    00000008                                                : sciclient_irq_rm.obj (.rodata.tisci_irq_PRU_ICSSG1)
                  700151e0    00000008                                                : sciclient_irq_rm.obj (.rodata.tisci_irq_TIMER0)
                  700151e8    00000008                                                : sciclient_irq_rm.obj (.rodata.tisci_irq_TIMER1)
                  700151f0    00000008                                                : sciclient_irq_rm.obj (.rodata.tisci_irq_TIMER2)
                  700151f8    00000008                                                : sciclient_irq_rm.obj (.rodata.tisci_irq_TIMER3)
                  70015200    00000008                                                : sciclient_irq_rm.obj (.rodata.tisci_irq_TIMESYNC_EVENT_INTROUTER0)
                  70015208    00000006                                                : bootloader_soc.obj (.rodata..L__const.Bootloader_socOpenFirewalls.fwlIds)
                  7001520e    00000002     --HOLE-- [fill = 0]
                  70015210    00000004                                                : sciclient_irq_rm.obj (.rodata.gRmIrqTreeCount)
                  70015214    00000004                                                : sciclient_irq_rm.obj (.rodata.tisci_if_EPWM0)
                  70015218    00000004                                                : sciclient_irq_rm.obj (.rodata.tisci_if_EPWM3)
                  7001521c    00000004                                                : sciclient_irq_rm.obj (.rodata.tisci_if_EPWM6)
                  70015220    00000004                                                : sciclient_irq_rm.obj (.rodata.tisci_if_GPMC0)
                  70015224    00000004                                                : sciclient_irq_rm.obj (.rodata.tisci_if_GTC0)
                  70015228    00000004                                                : sciclient_irq_rm.obj (.rodata.tisci_if_TIMER0)
                  7001522c    00000004                                                : sciclient_irq_rm.obj (.rodata.tisci_if_TIMER1)
                  70015230    00000004                                                : sciclient_irq_rm.obj (.rodata.tisci_if_TIMER2)
                  70015234    00000004                                                : sciclient_irq_rm.obj (.rodata.tisci_if_TIMER3)
                  70015238    00000008     --HOLE-- [fill = 0]

.bss       0    70080000    0000a680     UNINITIALIZED
                  70080000    00008000     main.obj (.bss)
                  70088000    00001008     (.common:gHwiCtrl)
                  70089008    000009ec     (.common:gUdmaDrvObj)
                  700899f4    00000004     drivers.am64x.r5f.ti-arm-clang.release.lib : bootloader_xmodem.obj (.bss.gUartHandle)
                  700899f8    000003b8     ti_drivers_config.obj (.bss.gMmcsdObjects)
                  70089db0    00000280     ti_drivers_config.obj (.bss.gUartObjects)
                  7008a030    00000258     ti_drivers_config.obj (.bss.gOspiUdmaBlkCopyChObj)
                  7008a288    00000184     ti_drivers_config.obj (.bss.gOspiObjects)
                  7008a40c    00000004     nortos.am64x.r5f.ti-arm-clang.release.lib : HwiP_armv7r_vim.obj (.bss.gdummy)
                  7008a410    00000038     (.common:gClockCtrl)
                  7008a448    00000028     drivers.am64x.r5f.ti-arm-clang.release.lib : sciclient_rm_irq.obj (.bss.gPstack)
                  7008a470    00000010                                                : ddr.obj (.bss.gLpddrCfg)
                  7008a480    00000100     ti_drivers_config.obj (.bss.gOspiUdmaBlkCopyCh0TrpdMem)
                  7008a580    00000080     ti_drivers_config.obj (.bss.gOspiUdmaBlkCopyCh0RingMem)
                  7008a600    00000014     drivers.am64x.r5f.ti-arm-clang.release.lib : ddr.obj (.bss.gLpddrPd)
                  7008a614    0000000c     (.common:gADMA2Desc)
                  7008a620    0000000c     (.common:gFlashObject_S28HS512T)
                  7008a62c    00000004     (.common:gFlashHandle)
                  7008a630    00000004     (.common:gMmcsdHandle)
                  7008a634    00000004     (.common:gOspiHandle)
                  7008a638    00000004     (.common:gUartHandle)
                  7008a63c    00000044     --HOLE--

.sysmem    0    7008a680    00008000     UNINITIALIZED
                  7008a680    00000010     libc.a : memory.c.obj (.sysmem)
                  7008a690    00007ff0     --HOLE--

.stack     0    70092680    00004000     UNINITIALIZED
                  70092680    00000004     nortos.am64x.r5f.ti-arm-clang.release.lib : boot_armv7r_asm.obj (.stack)
                  70092684    00003ffc     --HOLE--

.irqstack 
*          0    70096680    00001000     UNINITIALIZED
                  70096680    00001000     --HOLE--

.fiqstack 
*          0    70097680    00000100     UNINITIALIZED
                  70097680    00000100     --HOLE--

.svcstack 
*          0    70097780    00000100     UNINITIALIZED
                  70097780    00000100     --HOLE--

.abortstack 
*          0    70097880    00000100     UNINITIALIZED
                  70097880    00000100     --HOLE--

.undefinedstack 
*          0    70097980    00000100     UNINITIALIZED
                  70097980    00000100     --HOLE--

.bss.filebuf 
*          0    80000000    00800000     NOLOAD SECTION
                  80000000    00800000     main.obj (.bss.filebuf)

__llvm_prf_cnts 
*          0    70080000    00000000     UNINITIALIZED

MODULE SUMMARY

       Module                                   code    ro data   rw data
       ------                                   ----    -------   -------
    obj/release/
       main.obj                                 172     41        8421376
       ti_drivers_config.obj                    120     75        13478  
       ti_drivers_open_close.obj                246     212       108    
       ti_board_open_close.obj                  102     70        36     
       ti_dpl_config.obj                        80      0         124    
       ti_power_clock_config.obj                118     0         80     
       ti_pinmux_config.obj                     34      0         120    
    +--+----------------------------------------+-------+---------+---------+
       Total:                                   872     398       8435322
                                                                         
    /home/gtbldadm/nightlybuilds/repo_manifests/scripts/jenkins/mcu_plus_sdk_am64x_08_03_00_18/source/board/lib/board.am64x.r5f.ti-arm-clang.release.lib
       flash_nor_xspi.obj                       1964    193       20     
       flash.obj                                316     0         0      
       flash_nor_xspi_device_S28HS512T.obj      0       0         112    
    +--+----------------------------------------+-------+---------+---------+
       Total:                                   2280    193       132    
                                                                         
    /home/gtbldadm/nightlybuilds/repo_manifests/scripts/jenkins/mcu_plus_sdk_am64x_08_03_00_18/source/drivers/lib/drivers.am64x.r5f.ti-arm-clang.release.lib
       mmcsd_v0.obj                             8120    138       168    
       uart_v0.obj                              4418    309       156    
       udma_rm.obj                              4810    0         0      
       udma_ch.obj                              3764    0         0      
       ospi_phy.obj                             3098    0         340    
       sciclient_rm_irq.obj                     3242    0         40     
       ospi_v0.obj                              2558    101       156    
       sciclient_irq_rm.obj                     0       1612      332    
       csl_bcdma.obj                            1650    0         0      
       udma_event.obj                           1474    0         0      
       sciclient.obj                            1350    0         21     
       bootloader_uniflash.obj                  1276    0         0      
       ddr.obj                                  744     418       36     
       udma_soc.obj                             708     468       0      
       xmodem.obj                               1084    0         0      
       sciclient_pm.obj                         1072    0         0      
       ospi_dma_udma.obj                        844     210       12     
       lpddr4_16bit.obj                         624     306       0      
       udma_ring_common.obj                     836     0         0      
       csl_lcdma_ringacc.obj                    780     0         0      
       mmcsd_priv.obj                           646     103       0      
       udma_ring_lcdma.obj                      740     0         0      
       udma_rmcfg.obj                           78      552       88     
       udma_rmcfg_common.obj                    672     0         0      
       sciclient_rm.obj                         600     0         0      
       crc16.obj                                42      512       0      
       soc.obj                                  516     0         0      
       csl_pktdma.obj                           512     0         0      
       lpddr4.obj                               494     0         0      
       bootloader_mmcsd_raw.obj                 438     0         0      
       udma_utils.obj                           242     132       0      
       uart_dma.obj                             282     75        0      
       udma_flow.obj                            328     0         0      
       sciclient_fmwSecureProxyMap.obj          0       300       0      
       bootloader_soc.obj                       248     6         0      
       bootloader_xmodem.obj                    222     0         4      
       csl_intaggr.obj                          210     0         0      
       pinmux.obj                               168     0         0      
       sciclient_soc_priv.obj                   102     24        32     
       udma.obj                                 158     0         0      
       sciclient_firewall.obj                   128     0         0      
       ospi_dma.obj                             118     0         0      
       ddr_soc.obj                              66      0         0      
       csl_sec_proxy.obj                        10      0         0      
    +--+----------------------------------------+-------+---------+---------+
       Total:                                   49472   5266      1385   
                                                                         
    /home/gtbldadm/nightlybuilds/repo_manifests/scripts/jenkins/mcu_plus_sdk_am64x_08_03_00_18/source/kernel/nortos/lib/nortos.am64x.r5f.ti-arm-clang.release.lib
       HwiP_armv7r_vim.obj                      1090    0         4108   
       printf.obj                               3782    98        0      
       CacheP_armv7r_asm.obj                    856     0         0      
       TimerP.obj                               524     259       0      
       ClockP_nortos.obj                        634     90        56     
       HwiP_armv7r_handlers_nortos.obj          558     0         0      
       MpuP_armv7r.obj                          436     0         0      
       ClockP_nortos_r5.obj                     260     172       0      
       SemaphoreP_nortos.obj                    324     107       0      
       CacheP_armv7r.obj                        262     0         8      
       boot_armv7r_asm.obj                      252     0         0      
       DebugP_log.obj                           154     45        4      
       HwiP_armv7r_asm.obj                      152     0         0      
       MpuP_armv7r_asm.obj                      128     0         0      
       HwiP_armv7r_handlers_nortos_asm.obj      120     0         0      
       AddrTranslateP.obj                       104     0         12     
       HwiP_armv7r_vectors_nortos_sbl_asm.obj   64      0         0      
       DebugP_nortos.obj                        56      0         0      
       boot_armv7r.obj                          28      0         0      
       TaskP_nortos.obj                         2       0         0      
    +--+----------------------------------------+-------+---------+---------+
       Total:                                   9786    771       4188   
                                                                         
    /home/gtbldadm/ti/ccs1120/ccs/tools/compiler/ti-cgt-armllvm_1.3.1.LTS/lib/armv7r-ti-none-eabihf/c/libc.a
       _printfi.c.obj                           3140    34        0      
       aeabi_ctype.S.obj                        0       257       0      
       snprintf.c.obj                           252     0         0      
       atoi.c.obj                               108     0         0      
       autoinit.c.obj                           92      0         0      
       memccpy.c.obj                            72      0         0      
       wcslen.c.obj                             32      0         0      
       aeabi_portable.c.obj                     12      0         4      
       exit.c.obj                               8       0         0      
    +--+----------------------------------------+-------+---------+---------+
       Total:                                   3716    291       4      
                                                                         
    /home/gtbldadm/ti/ccs1120/ccs/tools/compiler/ti-cgt-armllvm_1.3.1.LTS/lib/armv7r-ti-none-eabihf/c/libsysbm.a
       memcpy32.S.obj                           28      0         0      
       memset32.S.obj                           24      0         0      
    +--+----------------------------------------+-------+---------+---------+
       Total:                                   52      0         0      
                                                                         
    /home/gtbldadm/ti/ccs1120/ccs/tools/compiler/ti-cgt-armllvm_1.3.1.LTS/lib/clang/12.0.1/lib/armv7r-ti-none-eabihf/libclang_rt.builtins.a
       udivsi3.S.obj                            464     0         0      
       udivmoddi4.S.obj                         280     0         0      
       aeabi_uldivmod.S.obj                     36      0         0      
       aeabi_memset.S.obj                       28      0         0      
       aeabi_div0.c.obj                         8       0         0      
       aeabi_memcpy.S.obj                       4       0         0      
    +--+----------------------------------------+-------+---------+---------+
       Total:                                   820     0         0      
                                                                         
       Heap:                                    0       0         32768  
       Stack:                                   0       0         16384  
    +--+----------------------------------------+-------+---------+---------+
       Grand Total:                             66998   6919      8490183

VENEERS

callee name               veneer name
   callee addr  veneer addr  call addr  call info
--------------  -----------  ---------  ----------------
CacheP_wb                 $Ven$TA$L$PI$$CacheP_wb
   700109b4     70003148     7000ed26   drivers.am64x.r5f.ti-arm-clang.release.lib : udma_ring_lcdma.obj (.text.Udma_lcdmaRingaccMemOps)
HwiP_enable               $Ven$TA$L$PI$$HwiP_enable
   70010868     700048b8     7000e3fc   ti_dpl_config.obj (.text.Dpl_init)
HwiP_restore              $Ven$TA$L$PI$$HwiP_restore
   70010888     70004c74     7000e0e0   nortos.am64x.r5f.ti-arm-clang.release.lib : ClockP_nortos.obj (.text.ClockP_stop)
                             7000ebb6                                             : ClockP_nortos.obj (.text.ClockP_destruct)
                             7000eef0                                             : ClockP_nortos.obj (.text.ClockP_start)
                             7000f0ee                                             : SemaphoreP_nortos.obj (.text.SemaphoreP_post)
HwiP_enableFIQ            $Ven$TA$L$PI$$HwiP_enableFIQ
   70010878     70010594     70010578   nortos.am64x.r5f.ti-arm-clang.release.lib : HwiP_armv7r_vim.obj (.text.hwi)
CacheP_invL1d             $Ven$TA$L$PI$$CacheP_invL1d
   70010930     70010d08     70010d02   nortos.am64x.r5f.ti-arm-clang.release.lib : CacheP_armv7r.obj (.text.cache)
HwiP_restore              $Ven$TA$L$PI$$HwiP_restore
   70010888     70010d10     70010cb6   nortos.am64x.r5f.ti-arm-clang.release.lib : CacheP_armv7r.obj (.text.cache)
CacheP_enableL1p          $Ven$TA$L$PI$$CacheP_enableL1p
   70010918     70010d18     70010c70   nortos.am64x.r5f.ti-arm-clang.release.lib : CacheP_armv7r.obj (.text.cache)
                             70010cdc                                             : CacheP_armv7r.obj (.text.cache)
MpuP_isEnableAsm          $Ven$TA$L$PI$$MpuP_isEnableAsm
   70010f24     70010f4c     70010e60   nortos.am64x.r5f.ti-arm-clang.release.lib : MpuP_armv7r.obj (.text.mpu)
HwiP_restore              $Ven$TA$L$PI$$HwiP_restore
   70010888     70010f54     70010e1a   nortos.am64x.r5f.ti-arm-clang.release.lib : MpuP_armv7r.obj (.text.mpu)
                             70010e4c                                             : MpuP_armv7r.obj (.text.mpu)

[9 trampolines]
[14 trampoline calls]


GLOBAL SYMBOLS: SORTED ALPHABETICALLY BY Name 

address   name                                                                          
-------   ----                                                                          
7000cc41  AddrTranslateP_getLocalAddr                                                   
7000fff1  Board_driversOpen                                                             
7000cf51  Board_flashOpen                                                               
70009e61  Bootloader_MmcsdRaw_readFromOffset                                            
700098f1  Bootloader_MmcsdRaw_writeToOffset                                             
7000c381  Bootloader_socOpenFirewalls                                                   
70010001  Bootloader_socWaitForFWBoot                                                   
70006d71  Bootloader_uniflashProcessFlashCommands                                       
7000f101  Bootloader_xmodemReceive                                                      
7000f041  Bootloader_xmodemTransmit                                                     
700024a8  C$$EXIT                                                                       
70014238  CMP_EVENT_INTROUTER0_outp_0_15_to_GICSS0_spi_48_63                            
70014dc8  CMP_EVENT_INTROUTER0_outp_16_23_to_R5FSS0_CORE0_intr_48_55                    
70014dd0  CMP_EVENT_INTROUTER0_outp_16_23_to_R5FSS0_CORE1_intr_48_55                    
70014dd8  CMP_EVENT_INTROUTER0_outp_24_31_to_R5FSS1_CORE0_intr_48_55                    
70014de0  CMP_EVENT_INTROUTER0_outp_24_31_to_R5FSS1_CORE1_intr_48_55                    
70014de8  CMP_EVENT_INTROUTER0_outp_32_39_to_DMASS0_INTAGGR_0_intaggr_levi_pend_0_7     
70014df0  CPSW0_cpts_comp_0_0_to_CMP_EVENT_INTROUTER0_in_80_80                          
70014df8  CPSW0_cpts_genf0_1_1_to_TIMESYNC_EVENT_INTROUTER0_in_21_21                    
70014e00  CPSW0_cpts_genf1_2_2_to_TIMESYNC_EVENT_INTROUTER0_in_22_22                    
70014e08  CPSW0_cpts_sync_3_3_to_TIMESYNC_EVENT_INTROUTER0_in_34_34                     
70010011  CPS_UncachedRead32                                                            
70010021  CPS_UncachedWrite32                                                           
70014e10  CPTS0_cpts_comp_0_0_to_CMP_EVENT_INTROUTER0_in_82_82                          
70014e18  CPTS0_cpts_genf0_1_1_to_TIMESYNC_EVENT_INTROUTER0_in_16_16                    
70014e20  CPTS0_cpts_genf1_2_2_to_TIMESYNC_EVENT_INTROUTER0_in_17_17                    
70014e28  CPTS0_cpts_genf2_3_3_to_TIMESYNC_EVENT_INTROUTER0_in_18_18                    
70014e30  CPTS0_cpts_genf3_4_4_to_TIMESYNC_EVENT_INTROUTER0_in_19_19                    
70014e38  CPTS0_cpts_genf4_5_5_to_TIMESYNC_EVENT_INTROUTER0_in_20_20                    
70014e40  CPTS0_cpts_genf5_6_6_to_TIMESYNC_EVENT_INTROUTER0_in_24_24                    
70014e48  CPTS0_cpts_sync_7_7_to_TIMESYNC_EVENT_INTROUTER0_in_35_35                     
70003be1  CSL_bcdmaChanOp                                                               
7000ed81  CSL_bcdmaGetCfg                                                               
7000f551  CSL_bcdmaGetChanPeerReg                                                       
7000fc71  CSL_bcdmaGetRxRT                                                              
7000fc91  CSL_bcdmaGetTxRT                                                              
7000f691  CSL_bcdmaSetChanPeerReg                                                       
7000fcb1  CSL_bcdmaSetRxRT                                                              
7000fcd1  CSL_bcdmaSetTxRT                                                              
7000f751  CSL_bcdmaTeardownRxChan                                                       
7000f771  CSL_bcdmaTeardownTxChan                                                       
7000da71  CSL_intaggrClrIntr                                                            
7000f131  CSL_intaggrGetCfg                                                             
7000d8f1  CSL_intaggrIsIntrPending                                                      
70009f31  CSL_lcdma_ringaccDequeue                                                      
7000fe91  CSL_lcdma_ringaccGetForwardRingOcc                                            
7000fd91  CSL_lcdma_ringaccGetReverseRingOcc                                            
7000fea1  CSL_lcdma_ringaccInitRingObj                                                  
7000fe11  CSL_lcdma_ringaccIsTeardownComplete                                           
7000fe21  CSL_lcdma_ringaccPop64                                                        
7000f971  CSL_lcdma_ringaccPush64                                                       
7000edc1  CSL_pktdmaGetCfg                                                              
7000fa41  CSL_pktdmaGetChanPeerReg                                                      
7000f311  CSL_pktdmaGetRxRT                                                             
7000f341  CSL_pktdmaGetTxRT                                                             
7000fa61  CSL_pktdmaSetChanPeerReg                                                      
7000f791  CSL_pktdmaSetRxRT                                                             
7000f7b1  CSL_pktdmaSetTxRT                                                             
7000ff91  CSL_pktdmaTeardownRxChan                                                      
7000ffa1  CSL_pktdmaTeardownTxChan                                                      
7000ff01  CSL_secProxyGetDataAddr                                                       
70010bd0  CacheP_configForceWrThru                                                      
70010c81  CacheP_disable                                                                
700108c0  CacheP_disableL1d                                                             
700108e8  CacheP_disableL1p                                                             
70010cc1  CacheP_enable                                                                 
70010900  CacheP_enableL1d                                                              
70010918  CacheP_enableL1p                                                              
70010bc4  CacheP_getCacheLevelInfo                                                      
70010b8c  CacheP_getEnabled                                                             
70010c01  CacheP_init                                                                   
70010ce1  CacheP_inv                                                                    
70010930  CacheP_invL1d                                                                 
700109a4  CacheP_invL1dAll                                                              
70010968  CacheP_invL1p                                                                 
700109ac  CacheP_invL1pAll                                                              
70010bf0  CacheP_setDLFO                                                                
700109b4  CacheP_wb                                                                     
70010a2c  CacheP_wbAll                                                                  
700109f0  CacheP_wbInv                                                                  
70010ad4  CacheP_wbInvAll                                                               
70010aec  CacheP_wbInvAllAsm                                                            
7000ff11  ClockP_Params_init                                                            
7000dde1  ClockP_construct                                                              
7000eb81  ClockP_destruct                                                               
7000fed1  ClockP_getTicks                                                               
7000dbb1  ClockP_getTimeUsec                                                            
70010031  ClockP_getTimerCount                                                          
70009421  ClockP_init                                                                   
7000ff21  ClockP_isActive                                                               
7000eec1  ClockP_start                                                                  
7000e0a1  ClockP_stop                                                                   
70010041  ClockP_timerClearOverflowInt                                                  
7000ca81  ClockP_timerTickIsr                                                           
7000f081  ClockP_usleep                                                                 
7001187c  DDRSS_ctlReg                                                                  
70012872  DDRSS_ctlRegNum                                                               
70011f18  DDRSS_phyIndepReg                                                             
70012bc0  DDRSS_phyIndepRegNum                                                          
70011090  DDRSS_phyReg                                                                  
7001247c  DDRSS_phyRegNum                                                               
70006071  DDR_init                                                                      
7000e191  DDR_socEnableVttRegulator                                                     
70014e50  DMASS0_INTAGGR_0_intaggr_vintr_pend_0_39_to_GICSS0_spi_64_103                 
70014e58  DMASS0_INTAGGR_0_intaggr_vintr_pend_120_127_to_R5FSS1_CORE0_intr_8_15         
70014e60  DMASS0_INTAGGR_0_intaggr_vintr_pend_128_135_to_R5FSS1_CORE1_intr_8_15         
70014e68  DMASS0_INTAGGR_0_intaggr_vintr_pend_152_159_to_PRU_ICSSG0_pr1_slv_intr_16_23  
70014e70  DMASS0_INTAGGR_0_intaggr_vintr_pend_160_167_to_PRU_ICSSG1_pr1_slv_intr_16_23  
70014e78  DMASS0_INTAGGR_0_intaggr_vintr_pend_168_183_to_MCU_M4FSS0_CORE0_nvic_32_47    
70014e80  DMASS0_INTAGGR_0_intaggr_vintr_pend_40_71_to_R5FSS0_CORE0_intr_64_95          
70014e88  DMASS0_INTAGGR_0_intaggr_vintr_pend_40_71_to_R5FSS0_CORE1_intr_64_95          
70014e90  DMASS0_INTAGGR_0_intaggr_vintr_pend_72_79_to_R5FSS0_CORE0_intr_8_15           
70014e98  DMASS0_INTAGGR_0_intaggr_vintr_pend_80_87_to_R5FSS0_CORE1_intr_8_15           
70014ea0  DMASS0_INTAGGR_0_intaggr_vintr_pend_88_119_to_R5FSS1_CORE0_intr_64_95         
70014ea8  DMASS0_INTAGGR_0_intaggr_vintr_pend_88_119_to_R5FSS1_CORE1_intr_64_95         
7000f7d1  DebugP_logZoneEnable                                                          
7000e3c1  Dpl_init                                                                      
7000dc01  Drivers_mmcsdOpen                                                             
7000fdb1  Drivers_open                                                                  
7000dc51  Drivers_ospiOpen                                                              
7000dca1  Drivers_uartOpen                                                              
70014eb0  EPWM0_epwm_synco_o_0_0_to_TIMESYNC_EVENT_INTROUTER0_in_39_39                  
70014eb8  EPWM3_epwm_synco_o_0_0_to_TIMESYNC_EVENT_INTROUTER0_in_40_40                  
70014ec0  EPWM6_epwm_synco_o_0_0_to_TIMESYNC_EVENT_INTROUTER0_in_41_41                  
7000feb1  Flash_close                                                                   
7000fdd1  Flash_eraseBlk                                                                
7000f7f1  Flash_getAttrs                                                                
7000f811  Flash_getHandle                                                               
7000fd31  Flash_getPhyTuningOffset                                                      
7000d891  Flash_offsetToBlkPage                                                         
7000ee01  Flash_open                                                                    
7000f891  Flash_read                                                                    
7000f8b1  Flash_write                                                                   
70014ec8  GPIO0_gpio_0_89_to_MAIN_GPIOMUX_INTROUTER0_in_0_89                            
70014ed0  GPIO0_gpio_bank_90_98_to_MAIN_GPIOMUX_INTROUTER0_in_190_198                   
70014ed8  GPIO1_gpio_0_89_to_MAIN_GPIOMUX_INTROUTER0_in_90_179                          
70014ee0  GPIO1_gpio_bank_90_98_to_MAIN_GPIOMUX_INTROUTER0_in_180_188                   
70014ee8  GPMC0_gpmc_sdmareq_0_0_to_DMASS0_INTAGGR_0_intaggr_levi_pend_29_29            
70014ef0  GTC0_gtc_push_event_0_0_to_TIMESYNC_EVENT_INTROUTER0_in_36_36                 
70010271  HwiP_Params_init                                                              
70010221  HwiP_clearInt                                                                 
70010291  HwiP_construct                                                                
700107a1  HwiP_data_abort_handler                                                       
700103e1  HwiP_destruct                                                                 
70010848  HwiP_disable                                                                  
70010858  HwiP_disableFIQ                                                               
70010181  HwiP_disableInt                                                               
700108a0  HwiP_disableVIC                                                               
70010868  HwiP_enable                                                                   
70010878  HwiP_enableFIQ                                                                
70010151  HwiP_enableInt                                                                
70010890  HwiP_enableVIC                                                                
70010631  HwiP_fiq_handler                                                              
700108b0  HwiP_getCPSR                                                                  
70010581  HwiP_inISR                                                                    
700104b1  HwiP_init                                                                     
700107d0  HwiP_irq_handler                                                              
700105a1  HwiP_irq_handler_c                                                            
70010241  HwiP_post                                                                     
70010771  HwiP_prefetch_abort_handler                                                   
700106e1  HwiP_reserved_handler                                                         
70010888  HwiP_restore                                                                  
700101c1  HwiP_restoreInt                                                               
70010741  HwiP_svc_handler                                                              
70010711  HwiP_undefined_handler                                                        
70008b91  LPDDR4_AckCtlInterrupt                                                        
70008941  LPDDR4_CheckCtlInterrupt                                                      
7000ef01  LPDDR4_EnablePIInitiator                                                      
7000fae1  LPDDR4_Init                                                                   
7000ef41  LPDDR4_PollCtlIrq                                                             
7000fe31  LPDDR4_Probe                                                                  
7000d6c1  LPDDR4_ReadReg                                                                
7000c931  LPDDR4_Start                                                                  
7000e9c1  LPDDR4_WriteCtlConfig                                                         
7000e1e1  LPDDR4_WritePhyConfig                                                         
7000e0f1  LPDDR4_WritePhyIndepConfig                                                    
70014ef8  MAIN_GPIOMUX_INTROUTER0_outp_0_15_to_GICSS0_spi_32_47                         
70014f00  MAIN_GPIOMUX_INTROUTER0_outp_0_15_to_R5FSS0_CORE0_intr_32_47                  
70014f08  MAIN_GPIOMUX_INTROUTER0_outp_0_15_to_R5FSS0_CORE1_intr_32_47                  
70014f10  MAIN_GPIOMUX_INTROUTER0_outp_0_15_to_R5FSS1_CORE0_intr_32_47                  
70014f18  MAIN_GPIOMUX_INTROUTER0_outp_0_15_to_R5FSS1_CORE1_intr_32_47                  
70014f20  MAIN_GPIOMUX_INTROUTER0_outp_16_17_to_DMASS0_INTAGGR_0_intaggr_levi_pend_24_25
70014f28  MAIN_GPIOMUX_INTROUTER0_outp_18_23_to_PRU_ICSSG0_pr1_iep0_cap_intr_req_4_9    
70014f30  MAIN_GPIOMUX_INTROUTER0_outp_18_23_to_PRU_ICSSG1_pr1_iep0_cap_intr_req_4_9    
70014f38  MAIN_GPIOMUX_INTROUTER0_outp_24_29_to_PRU_ICSSG0_pr1_iep1_cap_intr_req_10_15  
70014f40  MAIN_GPIOMUX_INTROUTER0_outp_24_29_to_PRU_ICSSG1_pr1_iep1_cap_intr_req_10_15  
70014f48  MAIN_GPIOMUX_INTROUTER0_outp_30_37_to_DMASS0_INTAGGR_0_intaggr_levi_pend_16_23
70014f50  MAIN_GPIOMUX_INTROUTER0_outp_38_45_to_PRU_ICSSG0_pr1_slv_intr_46_53           
70014f58  MAIN_GPIOMUX_INTROUTER0_outp_46_53_to_PRU_ICSSG1_pr1_slv_intr_46_53           
70014f60  MCU_GPIO0_gpio_0_29_to_MCU_MCU_GPIOMUX_INTROUTER0_in_0_29                     
70014f68  MCU_GPIO0_gpio_bank_30_31_to_MCU_MCU_GPIOMUX_INTROUTER0_in_30_31              
70014f70  MCU_MCU_GPIOMUX_INTROUTER0_outp_0_3_to_GICSS0_spi_104_107                     
70014f78  MCU_MCU_GPIOMUX_INTROUTER0_outp_0_3_to_R5FSS0_CORE0_intr_104_107              
70014f80  MCU_MCU_GPIOMUX_INTROUTER0_outp_0_3_to_R5FSS0_CORE1_intr_104_107              
70014f88  MCU_MCU_GPIOMUX_INTROUTER0_outp_0_3_to_R5FSS1_CORE0_intr_104_107              
70014f90  MCU_MCU_GPIOMUX_INTROUTER0_outp_0_3_to_R5FSS1_CORE1_intr_104_107              
70014f98  MCU_MCU_GPIOMUX_INTROUTER0_outp_4_7_to_MCU_M4FSS0_CORE0_nvic_0_3              
70014fa0  MCU_MCU_GPIOMUX_INTROUTER0_outp_8_11_to_MCU_ESM0_esm_pls_event0_88_91         
70014fa8  MCU_MCU_GPIOMUX_INTROUTER0_outp_8_11_to_MCU_ESM0_esm_pls_event1_92_95         
70014fb0  MCU_MCU_GPIOMUX_INTROUTER0_outp_8_11_to_MCU_ESM0_esm_pls_event2_96_99         
7000d9b1  MMCSD_close                                                                   
7000a001  MMCSD_enableBootPartition                                                     
7000fdf1  MMCSD_getBlockSize                                                            
7000f1f1  MMCSD_getHandle                                                               
7000c151  MMCSD_init                                                                    
70000101  MMCSD_open                                                                    
7000c1e1  MMCSD_parseCIDEmmc                                                            
7000c9a1  MMCSD_parseCIDSd                                                              
7000e401  MMCSD_parseCSDEmmc                                                            
7000b4c1  MMCSD_parseCSDSd                                                              
7000b6a1  MMCSD_parseECSDEmmc                                                           
7000f581  MMCSD_parseSCRSd                                                              
70009711  MMCSD_read                                                                    
70009801  MMCSD_write                                                                   
7000f161  Module_clockEnable                                                            
7000ec81  Module_clockSetFrequency                                                      
70010d21  MpuP_RegionAttrs_init                                                         
70010e21  MpuP_disable                                                                  
70010ed4  MpuP_disableAsm                                                               
70010eec  MpuP_disableBRAsm                                                             
70010de1  MpuP_enable                                                                   
70010efc  MpuP_enableAsm                                                                
70010f14  MpuP_enableBRAsm                                                              
70010e71  MpuP_init                                                                     
70010e61  MpuP_isEnable                                                                 
70010f24  MpuP_isEnableAsm                                                              
70010d31  MpuP_setRegion                                                                
70010f38  MpuP_setRegionAsm                                                             
7000fcf1  OSPI_ReadCmdParams_init                                                       
7000fd51  OSPI_Transaction_init                                                         
7000fd11  OSPI_WriteCmdParams_init                                                      
7000ce01  OSPI_close                                                                    
7000ef81  OSPI_disablePhy                                                               
7000fb01  OSPI_disablePhyPipeline                                                       
7000fb21  OSPI_dmaClose                                                                 
7000f5e1  OSPI_dmaCopy                                                                  
7000ec01  OSPI_dmaOpen                                                                  
7000fb41  OSPI_enableDDR                                                                
7000f8d1  OSPI_enableDacMode                                                            
7000e231  OSPI_enablePhy                                                                
7000fb61  OSPI_enableSDR                                                                
7000fee1  OSPI_getFlashDataBaseAddr                                                     
7000f371  OSPI_getHandle                                                                
7000ffb1  OSPI_getXferLines                                                             
7000c271  OSPI_init                                                                     
7000ffc1  OSPI_isDtrEnable                                                              
7000ffd1  OSPI_isPhyEnable                                                              
700065d1  OSPI_open                                                                     
70002b71  OSPI_phyFindOTP1                                                              
70005a51  OSPI_phyFindOTP2                                                              
7000d241  OSPI_phyFindRxHigh                                                            
7000d2a1  OSPI_phyFindRxLow                                                             
7000d301  OSPI_phyFindTxHigh                                                            
7000d361  OSPI_phyFindTxLow                                                             
7000fe41  OSPI_phyGetTuningData                                                         
7000dcf1  OSPI_phyReadAttackVector                                                      
7000c7e1  OSPI_phyResyncDLL                                                             
7000de31  OSPI_phySetRdDelayTxRxDLL                                                     
7000b741  OSPI_phyTuneDDR                                                               
70008cb1  OSPI_readCmd                                                                  
7000a0c1  OSPI_readDirect                                                               
7000fb81  OSPI_setCmdDummyCycles                                                        
7000ff71  OSPI_setCmdExtType                                                            
7000f3a1  OSPI_setDeviceSize                                                            
7000fe51  OSPI_setDualOpCodeMode                                                        
7000f6c1  OSPI_setNumAddrBytes                                                          
7000ff31  OSPI_setPhyEnableSuccess                                                      
7000f991  OSPI_setRdDataCaptureDelay                                                    
7000fd71  OSPI_setReadDummyCycles                                                       
7000efc1  OSPI_setXferLines                                                             
7000cfc1  OSPI_setXferOpCodes                                                           
70008dd1  OSPI_writeCmd                                                                 
70009ad1  OSPI_writeIndirect                                                            
70014fb8  PCIE0_pcie_cpts_comp_0_0_to_CMP_EVENT_INTROUTER0_in_81_81                     
70014fc0  PCIE0_pcie_cpts_genf0_1_1_to_TIMESYNC_EVENT_INTROUTER0_in_23_23               
70014fc8  PCIE0_pcie_cpts_hw1_push_2_2_to_TIMESYNC_EVENT_INTROUTER0_in_37_37            
70014fd0  PCIE0_pcie_cpts_sync_3_3_to_TIMESYNC_EVENT_INTROUTER0_in_33_33                
70014fd8  PCIE0_pcie_ptm_valid_pulse_4_4_to_TIMESYNC_EVENT_INTROUTER0_in_38_38          
70014fe0  PRU_ICSSG0_pr1_edc0_sync0_out_0_0_to_TIMESYNC_EVENT_INTROUTER0_in_25_25       
70014fe8  PRU_ICSSG0_pr1_edc0_sync1_out_1_1_to_TIMESYNC_EVENT_INTROUTER0_in_26_26       
70014ff0  PRU_ICSSG0_pr1_edc1_sync0_out_2_2_to_TIMESYNC_EVENT_INTROUTER0_in_27_27       
70014ff8  PRU_ICSSG0_pr1_edc1_sync1_out_3_3_to_TIMESYNC_EVENT_INTROUTER0_in_28_28       
70015000  PRU_ICSSG0_pr1_host_intr_req_4_11_to_CMP_EVENT_INTROUTER0_in_0_7              
70015008  PRU_ICSSG0_pr1_iep0_cmp_intr_req_12_27_to_CMP_EVENT_INTROUTER0_in_16_31       
70015010  PRU_ICSSG0_pr1_iep1_cmp_intr_req_28_43_to_CMP_EVENT_INTROUTER0_in_32_47       
70015018  PRU_ICSSG1_pr1_edc0_sync0_out_0_0_to_TIMESYNC_EVENT_INTROUTER0_in_29_29       
70015020  PRU_ICSSG1_pr1_edc0_sync1_out_1_1_to_TIMESYNC_EVENT_INTROUTER0_in_30_30       
70015028  PRU_ICSSG1_pr1_edc1_sync0_out_2_2_to_TIMESYNC_EVENT_INTROUTER0_in_31_31       
70015030  PRU_ICSSG1_pr1_edc1_sync1_out_3_3_to_TIMESYNC_EVENT_INTROUTER0_in_32_32       
70015038  PRU_ICSSG1_pr1_host_intr_req_4_11_to_CMP_EVENT_INTROUTER0_in_8_15             
70015040  PRU_ICSSG1_pr1_iep0_cmp_intr_req_12_27_to_CMP_EVENT_INTROUTER0_in_48_63       
70015048  PRU_ICSSG1_pr1_iep1_cmp_intr_req_28_43_to_CMP_EVENT_INTROUTER0_in_64_79       
7000a801  Pinmux_config                                                                 
7000f6f1  Pinmux_init                                                                   
7000fec1  PowerClock_init                                                               
7000f3d1  SOC_controlModuleLockMMR                                                      
7000ea01  SOC_controlModuleUnlockMMR                                                    
7000c851  SOC_moduleClockEnable                                                         
70008811  SOC_moduleSetClockFrequency                                                   
7000e441  Sciclient_firewallChangeOwnerInfo                                             
7000e481  Sciclient_firewallSetRegion                                                   
7000db11  Sciclient_getContext                                                          
7000ecc1  Sciclient_getCurrentContext                                                   
7000fba1  Sciclient_getDevId                                                            
7000fef1  Sciclient_getSelfDevIdCore                                                    
7000b601  Sciclient_init                                                                
7000c401  Sciclient_pmGetModuleClkNumParent                                             
7000cd21  Sciclient_pmGetModuleClkParent                                                
7000ca11  Sciclient_pmGetModuleState                                                    
7000d3c1  Sciclient_pmModuleClkRequest                                                  
7000ce71  Sciclient_pmModuleGetClkStatus                                                
7000b241  Sciclient_pmQueryModuleClkFreq                                                
7000bc41  Sciclient_pmSetModuleClkFreq                                                  
7000d181  Sciclient_pmSetModuleClkParent                                                
7000e141  Sciclient_pmSetModuleRst                                                      
7000da11  Sciclient_pmSetModuleState                                                    
7000dd41  Sciclient_rmGetResourceRange                                                  
7000c301  Sciclient_rmIrOutpIsFree                                                      
70010051  Sciclient_rmIrqSet                                                            
7000e4c1  Sciclient_rmIrqSetRaw                                                         
70010061  Sciclient_rmIrqTranslateIaOutput                                              
70006fc1  Sciclient_rmProgramInterruptRoute                                             
7000e281  Sciclient_rmPsilPair                                                          
7000e2d1  Sciclient_rmPsilUnpair                                                        
7000e501  Sciclient_rmRingCfg                                                           
7000b7e1  Sciclient_rmTranslateIntOutput                                                
7000e541  Sciclient_rmUdmapFlowCfg                                                      
7000e581  Sciclient_rmUdmapFlowSizeThreshCfg                                            
7000e5c1  Sciclient_rmUdmapRxChCfg                                                      
7000e601  Sciclient_rmUdmapTxChCfg                                                      
70005021  Sciclient_service                                                             
7000d1e1  Sciclient_waitForBootNotification                                             
7000e641  SemaphoreP_constructBinary                                                    
7000eac1  SemaphoreP_constructMutex                                                     
700100f1  SemaphoreP_destruct                                                           
7000b921  SemaphoreP_pend                                                               
7000f0c1  SemaphoreP_post                                                               
7000c581  System_init                                                                   
70015050  TIMER0_timer_pwm_0_0_to_TIMESYNC_EVENT_INTROUTER0_in_0_0                      
70015058  TIMER1_timer_pwm_0_0_to_TIMESYNC_EVENT_INTROUTER0_in_1_1                      
70015060  TIMER2_timer_pwm_0_0_to_TIMESYNC_EVENT_INTROUTER0_in_2_2                      
70015068  TIMER3_timer_pwm_0_0_to_TIMESYNC_EVENT_INTROUTER0_in_3_3                      
70015070  TIMESYNC_EVENT_INTROUTER0_outl_0_7_to_DMASS0_INTAGGR_0_intaggr_levi_pend_8_15 
70015078  TIMESYNC_EVENT_INTROUTER0_outl_10_10_to_PRU_ICSSG0_pr1_edc1_latch0_in_2_2     
70015080  TIMESYNC_EVENT_INTROUTER0_outl_11_11_to_PRU_ICSSG0_pr1_edc1_latch1_in_3_3     
70015088  TIMESYNC_EVENT_INTROUTER0_outl_12_12_to_PRU_ICSSG1_pr1_edc0_latch0_in_0_0     
70015090  TIMESYNC_EVENT_INTROUTER0_outl_13_13_to_PRU_ICSSG1_pr1_edc0_latch1_in_1_1     
70015098  TIMESYNC_EVENT_INTROUTER0_outl_14_14_to_PRU_ICSSG1_pr1_edc1_latch0_in_2_2     
700150a0  TIMESYNC_EVENT_INTROUTER0_outl_15_15_to_PRU_ICSSG1_pr1_edc1_latch1_in_3_3     
700150a8  TIMESYNC_EVENT_INTROUTER0_outl_16_16_to_CPTS0_cpts_hw1_push_0_0               
700150b0  TIMESYNC_EVENT_INTROUTER0_outl_17_17_to_CPTS0_cpts_hw2_push_1_1               
700150b8  TIMESYNC_EVENT_INTROUTER0_outl_18_18_to_CPTS0_cpts_hw3_push_2_2               
700150c0  TIMESYNC_EVENT_INTROUTER0_outl_19_19_to_CPTS0_cpts_hw4_push_3_3               
700150c8  TIMESYNC_EVENT_INTROUTER0_outl_20_20_to_CPTS0_cpts_hw5_push_4_4               
700150d0  TIMESYNC_EVENT_INTROUTER0_outl_21_21_to_CPTS0_cpts_hw6_push_5_5               
700150d8  TIMESYNC_EVENT_INTROUTER0_outl_22_22_to_CPTS0_cpts_hw7_push_6_6               
700150e0  TIMESYNC_EVENT_INTROUTER0_outl_23_23_to_CPTS0_cpts_hw8_push_7_7               
700150e8  TIMESYNC_EVENT_INTROUTER0_outl_29_29_to_PCIE0_pcie_cpts_hw2_push_0_0          
700150f0  TIMESYNC_EVENT_INTROUTER0_outl_30_30_to_CPSW0_cpts_hw1_push_0_0               
700150f8  TIMESYNC_EVENT_INTROUTER0_outl_31_31_to_CPSW0_cpts_hw2_push_1_1               
70015100  TIMESYNC_EVENT_INTROUTER0_outl_32_32_to_CPSW0_cpts_hw3_push_2_2               
70015108  TIMESYNC_EVENT_INTROUTER0_outl_33_33_to_CPSW0_cpts_hw4_push_3_3               
70015110  TIMESYNC_EVENT_INTROUTER0_outl_34_34_to_CPSW0_cpts_hw5_push_4_4               
70015118  TIMESYNC_EVENT_INTROUTER0_outl_35_35_to_CPSW0_cpts_hw6_push_5_5               
70015120  TIMESYNC_EVENT_INTROUTER0_outl_36_36_to_CPSW0_cpts_hw7_push_6_6               
70015128  TIMESYNC_EVENT_INTROUTER0_outl_37_37_to_CPSW0_cpts_hw8_push_7_7               
70015130  TIMESYNC_EVENT_INTROUTER0_outl_8_8_to_PRU_ICSSG0_pr1_edc0_latch0_in_0_0       
70015138  TIMESYNC_EVENT_INTROUTER0_outl_9_9_to_PRU_ICSSG0_pr1_edc0_latch1_in_1_1       
7000fa08  TI_memcpy_small                                                               
7000fc58  TI_memset_small                                                               
70010101  TaskP_yield                                                                   
7000f8f1  TimerP_Params_init                                                            
7000fe61  TimerP_clearOverflowInt                                                       
70010071  TimerP_getCount                                                               
70010081  TimerP_getReloadCount                                                         
70007df1  TimerP_setup                                                                  
7000ff41  TimerP_start                                                                  
70008581  UART_close                                                                    
7000d951  UART_dmaClose                                                                 
7000d781  UART_dmaDisableChannel                                                        
7000ec41  UART_dmaOpen                                                                  
7000a481  UART_flushTxFifo                                                              
7000f281  UART_getHandle                                                                
7000b9c1  UART_init                                                                     
700044e1  UART_open                                                                     
70006af1  UART_read                                                                     
7000fa81  UART_readInterruptDma                                                         
70007871  UART_write                                                                    
7000faa1  UART_writeInterruptDma                                                        
7000e321  UdmaChPrms_init                                                               
7000e371  UdmaChRxPrms_init                                                             
7000de81  UdmaChTxPrms_init                                                             
7000eb01  UdmaEventPrms_init                                                            
7000e001  UdmaFlowPrms_init                                                             
7000f2b1  UdmaRingPrms_init                                                             
70006331  UdmaRmInitPrms_init                                                           
7000f9b1  UdmaUtils_getRingMemSize                                                      
7000cee1  UdmaUtils_makeTrpd                                                            
7000f831  UdmaUtils_makeTrpdTr15                                                        
7000ba61  Udma_chClose                                                                  
700086d1  Udma_chConfigRx                                                               
70009d81  Udma_chConfigTx                                                               
700036b1  Udma_chDisable                                                                
70009521  Udma_chEnable                                                                 
7000f491  Udma_chGetCqRingHandle                                                        
7000f2e1  Udma_chGetCqRingNum                                                           
7000f4c1  Udma_chGetFqRingHandle                                                        
700048c1  Udma_chOpen                                                                   
70010111  Udma_defaultPhyToVirtFxn                                                      
70010091  Udma_defaultVirtToPhyFxn                                                      
70004071  Udma_eventRegister                                                            
70009111  Udma_flowConfig                                                               
7000ea41  Udma_getMappedChRingAttributes                                                
7000b2e1  Udma_init                                                                     
70006861  Udma_initDrvHandle                                                            
700100a1  Udma_isCacheCoherent                                                          
7000ed01  Udma_lcdmaRingaccMemOps                                                       
7000f401  Udma_phyToVirtFxn                                                             
70007fc1  Udma_ringAlloc                                                                
7000d661  Udma_ringDequeueRaw                                                           
7000f911  Udma_ringDequeueRawLcdma                                                      
7000eb41  Udma_ringFlushRaw                                                             
7000d031  Udma_ringFlushRawLcdma                                                        
7000d0a1  Udma_ringFree                                                                 
7000fbc1  Udma_ringGetElementCntLcdma                                                   
7000f4f1  Udma_ringGetForwardRingOccLcdma                                               
7000fbe1  Udma_ringGetMemPtrLcdma                                                       
7000fc01  Udma_ringGetModeLcdma                                                         
7000f931  Udma_ringGetNum                                                               
7000fc21  Udma_ringGetRdIdxLcdma                                                        
7000f521  Udma_ringGetReverseRingOccLcdma                                               
7000fc41  Udma_ringGetWrIdxLcdma                                                        
7000ff81  Udma_ringHandleClearRegsLcdma                                                 
7000f5b1  Udma_ringPrimeLcdma                                                           
7000e681  Udma_ringPrimeReadLcdma                                                       
7000d111  Udma_ringQueueRaw                                                             
7000f951  Udma_ringQueueRawLcdma                                                        
7000bd61  Udma_ringSetCfgLcdma                                                          
7000dd91  Udma_ringSetDoorBellLcdma                                                     
7000aa11  Udma_rmAllocBlkCopyCh                                                         
7000aac1  Udma_rmAllocBlkCopyHcCh                                                       
7000ab71  Udma_rmAllocBlkCopyUhcCh                                                      
7000d4e1  Udma_rmAllocEvent                                                             
7000ffe1  Udma_rmAllocFreeRing                                                          
7000ac21  Udma_rmAllocIrIntr                                                            
7000b561  Udma_rmAllocMappedRing                                                        
7000a6a1  Udma_rmAllocMappedRxCh                                                        
7000a751  Udma_rmAllocMappedTxCh                                                        
7000acd1  Udma_rmAllocRxCh                                                              
7000ad81  Udma_rmAllocRxHcCh                                                            
7000ae31  Udma_rmAllocRxUhcCh                                                           
7000aee1  Udma_rmAllocTxCh                                                              
7000af91  Udma_rmAllocTxHcCh                                                            
7000b041  Udma_rmAllocTxUhcCh                                                           
7000d541  Udma_rmAllocVintr                                                             
7000c601  Udma_rmAllocVintrBit                                                          
7000e6c1  Udma_rmFreeBlkCopyCh                                                          
7000e701  Udma_rmFreeBlkCopyHcCh                                                        
7000e741  Udma_rmFreeBlkCopyUhcCh                                                       
7000e781  Udma_rmFreeEvent                                                              
70010121  Udma_rmFreeFreeRing                                                           
7000e7c1  Udma_rmFreeIrIntr                                                             
7000d421  Udma_rmFreeMappedRing                                                         
7000ded1  Udma_rmFreeMappedRxCh                                                         
7000df21  Udma_rmFreeMappedTxCh                                                         
7000e801  Udma_rmFreeRxCh                                                               
7000e841  Udma_rmFreeRxHcCh                                                             
7000e881  Udma_rmFreeRxUhcCh                                                            
7000e8c1  Udma_rmFreeTxCh                                                               
7000e901  Udma_rmFreeTxHcCh                                                             
7000e941  Udma_rmFreeTxUhcCh                                                            
7000e981  Udma_rmFreeVintr                                                              
7000d7e1  Udma_rmFreeVintrBit                                                           
7000fac1  Udma_rmGetDefBoardCfgPrms                                                     
7000be81  Udma_rmGetSciclientDefaultBoardCfgRmRange                                     
7000f001  Udma_rmGetSharedResPrms                                                       
700053a1  Udma_rmInit                                                                   
70009321  Udma_rmSetSharedResRmInitPrms                                                 
7000fe71  Udma_rmTranslateCoreIntrInput                                                 
7000fe81  Udma_rmTranslateIrOutput                                                      
7000f721  Udma_virtToPhyFxn                                                             
7000d5a1  _DebugP_assert                                                                
70011061  _DebugP_assertNoLog                                                           
7000ed41  _DebugP_logZone                                                               
70097980  __ABORT_STACK_END                                                             
00000100  __ABORT_STACK_SIZE                                                            
70097880  __ABORT_STACK_START                                                           
7008a680  __BSS_END                                                                     
70080000  __BSS_START                                                                   
70097780  __FIQ_STACK_END                                                               
00000100  __FIQ_STACK_SIZE                                                              
70097680  __FIQ_STACK_START                                                             
70097680  __IRQ_STACK_END                                                               
00001000  __IRQ_STACK_SIZE                                                              
70096680  __IRQ_STACK_START                                                             
70096680  __STACK_END                                                                   
00004000  __STACK_SIZE                                                                  
70097880  __SVC_STACK_END                                                               
00000100  __SVC_STACK_SIZE                                                              
70097780  __SVC_STACK_START                                                             
00008000  __SYSMEM_SIZE                                                                 
UNDEFED   __TI_CINIT_Base                                                               
UNDEFED   __TI_CINIT_Limit                                                              
UNDEFED   __TI_Handler_Table_Base                                                       
UNDEFED   __TI_Handler_Table_Limit                                                      
7000d5fc  __TI_auto_init_nobinit_nopinit                                                
ffffffff  __TI_pprof_out_hndl                                                           
70000fdc  __TI_printfi_nofloat                                                          
ffffffff  __TI_prof_data_size                                                           
ffffffff  __TI_prof_data_start                                                          
70000000  __TI_static_base__                                                            
70097a80  __UNDEFINED_STACK_END                                                         
00000100  __UNDEFINED_STACK_SIZE                                                        
70097980  __UNDEFINED_STACK_START                                                       
70014240  __aeabi_ctype_table_                                                          
70014240  __aeabi_ctype_table_C                                                         
700136d4  __aeabi_errno                                                                 
70001c04  __aeabi_errno_addr                                                            
700100b0  __aeabi_idiv0                                                                 
700100c0  __aeabi_ldiv0                                                                 
7000fa34  __aeabi_memclr                                                                
7000fa34  __aeabi_memclr4                                                               
7000fa34  __aeabi_memclr8                                                               
70003144  __aeabi_memcpy                                                                
70003144  __aeabi_memcpy4                                                               
70003144  __aeabi_memcpy8                                                               
7000fa24  __aeabi_memset                                                                
7000fa24  __aeabi_memset4                                                               
7000fa24  __aeabi_memset8                                                               
70007c20  __aeabi_uidiv                                                                 
7000f634  __aeabi_uldivmod                                                              
ffffffff  __binit__                                                                     
70011081  __mpu_init                                                                    
70092680  __stack                                                                       
70080000  __start___llvm_prf_cnts                                                       
70080000  __stop___llvm_prf_cnts                                                        
70008ee8  __udivmoddi4                                                                  
70007c20  __udivsi3                                                                     
70010f84  _c_int00                                                                      
70010f60  _c_int00_sbl                                                                  
7000e051  _inbyte                                                                       
7000ee81  _outbyte                                                                      
7008a680  _sys_memory                                                                   
UNDEFED   _system_post_cinit                                                            
7000f9d1  _system_pre_init                                                              
70000000  _vectors_sbl                                                                  
700024a8  abort                                                                         
7000caec  atoi                                                                          
ffffffff  binit                                                                         
7000f431  crc16_ccitt                                                                   
7008a614  gADMA2Desc                                                                    
70013670  gAddrTranslateConfig                                                          
70013694  gCacheConfig                                                                  
700136d8  gCacheL1dCacheLineSize                                                        
700136dc  gCacheL1pCacheLineSize                                                        
70013614  gClockConfig                                                                  
7008a410  gClockCtrl                                                                    
700136e0  gDebugLogZone                                                                 
70013650  gFlashConfig                                                                  
700136e4  gFlashConfigNum                                                               
7008a62c  gFlashHandle                                                                  
70013500  gFlashNorXspiAttrs_S28HS512T                                                  
7001341c  gFlashNorXspiDeviceDefines_S28HS512T                                          
70013628  gFlashNorXspiFxns                                                             
7008a620  gFlashObject_S28HS512T                                                        
700136e8  gHwiConfig                                                                    
70088000  gHwiCtrl                                                                      
7001369c  gMmcsdConfig                                                                  
700136ec  gMmcsdConfigNum                                                               
7008a630  gMmcsdHandle                                                                  
700136a4  gMmcsdParams                                                                  
7001367c  gMpuConfig                                                                    
7001337c  gMpuRegionConfig                                                              
700136ac  gOspiConfig                                                                   
700136f0  gOspiConfigNum                                                                
700136b4  gOspiDmaConfig                                                                
700136f4  gOspiDmaConfigNum                                                             
70013688  gOspiDmaUdmaFxns                                                              
7008a634  gOspiHandle                                                                   
700136f8  gOspiParams                                                                   
700135f8  gOspiUdma0Args                                                                
700136fc  gPhyTuneWindowParams                                                          
70013528  gPhyTuneWindowParamsGTE133                                                    
70013550  gPhyTuneWindowParamsLT133                                                     
70013598  gRmIaInstances                                                                
70013270  gRmIrInstances                                                                
700149f8  gRmIrqTree                                                                    
70015210  gRmIrqTreeCount                                                               
70014008  gSciclientMap                                                                 
700135b8  gSciclientSecProxyCfg                                                         
700135d8  gSocModules                                                                   
700134d0  gSocModulesClockFrequency                                                     
700136cc  gUartConfig                                                                   
70013714  gUartConfigNum                                                                
70011090  gUartDmaConfig                                                                
70013718  gUartDmaConfigNum                                                             
7008a638  gUartHandle                                                                   
70013328  gUartParams                                                                   
70089008  gUdmaDrvObj                                                                   
700146f0  gUdmaRmDefBoardCfg_Bcdma                                                      
70013920  gUdmaRmDefBoardCfg_Pktdma                                                     
700132d0  gUdmaRmSharedResPrms                                                          
70014654  gUdmaRxMappedChRingAttributes                                                 
70013c68  gUdmaTxMappedChRingAttributes                                                 
80000000  gUniflashFileBuf                                                              
70080000  gUniflashVerifyBuf                                                            
7000a5f1  main                                                                          
7000df68  memccpy                                                                       
70010141  putchar_                                                                      
7000c6f8  snprintf                                                                      
70014d78  tisci_if_CMP_EVENT_INTROUTER0                                                 
70014db8  tisci_if_CPSW0                                                                
70014d08  tisci_if_CPTS0                                                                
70014c18  tisci_if_DMASS0_INTAGGR_0                                                     
70015214  tisci_if_EPWM0                                                                
70015218  tisci_if_EPWM3                                                                
7001521c  tisci_if_EPWM6                                                                
70015140  tisci_if_GPIO0                                                                
70015148  tisci_if_GPIO1                                                                
70015220  tisci_if_GPMC0                                                                
70015224  tisci_if_GTC0                                                                 
70014bb4  tisci_if_MAIN_GPIOMUX_INTROUTER0                                              
70015150  tisci_if_MCU_GPIO0                                                            
70014ca0  tisci_if_MCU_MCU_GPIOMUX_INTROUTER0                                           
70014d90  tisci_if_PCIE0                                                                
70014d28  tisci_if_PRU_ICSSG0                                                           
70014d44  tisci_if_PRU_ICSSG1                                                           
70015228  tisci_if_TIMER0                                                               
7001522c  tisci_if_TIMER1                                                               
70015230  tisci_if_TIMER2                                                               
70015234  tisci_if_TIMER3                                                               
700148d0  tisci_if_TIMESYNC_EVENT_INTROUTER0                                            
70012e72  vint_usage_count_DMASS0_INTAGGR_0                                             
7000f851  vprintf_                                                                      
7000f870  wcslen                                                                        
70007211  xmodemReceive                                                                 
70007661  xmodemTransmit                                                                


GLOBAL SYMBOLS: SORTED BY Symbol Address 

address   name                                                                          
-------   ----                                                                          
00000100  __ABORT_STACK_SIZE                                                            
00000100  __FIQ_STACK_SIZE                                                              
00000100  __SVC_STACK_SIZE                                                              
00000100  __UNDEFINED_STACK_SIZE                                                        
00001000  __IRQ_STACK_SIZE                                                              
00004000  __STACK_SIZE                                                                  
00008000  __SYSMEM_SIZE                                                                 
70000000  __TI_static_base__                                                            
70000000  _vectors_sbl                                                                  
70000101  MMCSD_open                                                                    
70000fdc  __TI_printfi_nofloat                                                          
70001c04  __aeabi_errno_addr                                                            
700024a8  C$$EXIT                                                                       
700024a8  abort                                                                         
70002b71  OSPI_phyFindOTP1                                                              
70003144  __aeabi_memcpy                                                                
70003144  __aeabi_memcpy4                                                               
70003144  __aeabi_memcpy8                                                               
700036b1  Udma_chDisable                                                                
70003be1  CSL_bcdmaChanOp                                                               
70004071  Udma_eventRegister                                                            
700044e1  UART_open                                                                     
700048c1  Udma_chOpen                                                                   
70005021  Sciclient_service                                                             
700053a1  Udma_rmInit                                                                   
70005a51  OSPI_phyFindOTP2                                                              
70006071  DDR_init                                                                      
70006331  UdmaRmInitPrms_init                                                           
700065d1  OSPI_open                                                                     
70006861  Udma_initDrvHandle                                                            
70006af1  UART_read                                                                     
70006d71  Bootloader_uniflashProcessFlashCommands                                       
70006fc1  Sciclient_rmProgramInterruptRoute                                             
70007211  xmodemReceive                                                                 
70007661  xmodemTransmit                                                                
70007871  UART_write                                                                    
70007c20  __aeabi_uidiv                                                                 
70007c20  __udivsi3                                                                     
70007df1  TimerP_setup                                                                  
70007fc1  Udma_ringAlloc                                                                
70008581  UART_close                                                                    
700086d1  Udma_chConfigRx                                                               
70008811  SOC_moduleSetClockFrequency                                                   
70008941  LPDDR4_CheckCtlInterrupt                                                      
70008b91  LPDDR4_AckCtlInterrupt                                                        
70008cb1  OSPI_readCmd                                                                  
70008dd1  OSPI_writeCmd                                                                 
70008ee8  __udivmoddi4                                                                  
70009111  Udma_flowConfig                                                               
70009321  Udma_rmSetSharedResRmInitPrms                                                 
70009421  ClockP_init                                                                   
70009521  Udma_chEnable                                                                 
70009711  MMCSD_read                                                                    
70009801  MMCSD_write                                                                   
700098f1  Bootloader_MmcsdRaw_writeToOffset                                             
70009ad1  OSPI_writeIndirect                                                            
70009d81  Udma_chConfigTx                                                               
70009e61  Bootloader_MmcsdRaw_readFromOffset                                            
70009f31  CSL_lcdma_ringaccDequeue                                                      
7000a001  MMCSD_enableBootPartition                                                     
7000a0c1  OSPI_readDirect                                                               
7000a481  UART_flushTxFifo                                                              
7000a5f1  main                                                                          
7000a6a1  Udma_rmAllocMappedRxCh                                                        
7000a751  Udma_rmAllocMappedTxCh                                                        
7000a801  Pinmux_config                                                                 
7000aa11  Udma_rmAllocBlkCopyCh                                                         
7000aac1  Udma_rmAllocBlkCopyHcCh                                                       
7000ab71  Udma_rmAllocBlkCopyUhcCh                                                      
7000ac21  Udma_rmAllocIrIntr                                                            
7000acd1  Udma_rmAllocRxCh                                                              
7000ad81  Udma_rmAllocRxHcCh                                                            
7000ae31  Udma_rmAllocRxUhcCh                                                           
7000aee1  Udma_rmAllocTxCh                                                              
7000af91  Udma_rmAllocTxHcCh                                                            
7000b041  Udma_rmAllocTxUhcCh                                                           
7000b241  Sciclient_pmQueryModuleClkFreq                                                
7000b2e1  Udma_init                                                                     
7000b4c1  MMCSD_parseCSDSd                                                              
7000b561  Udma_rmAllocMappedRing                                                        
7000b601  Sciclient_init                                                                
7000b6a1  MMCSD_parseECSDEmmc                                                           
7000b741  OSPI_phyTuneDDR                                                               
7000b7e1  Sciclient_rmTranslateIntOutput                                                
7000b921  SemaphoreP_pend                                                               
7000b9c1  UART_init                                                                     
7000ba61  Udma_chClose                                                                  
7000bc41  Sciclient_pmSetModuleClkFreq                                                  
7000bd61  Udma_ringSetCfgLcdma                                                          
7000be81  Udma_rmGetSciclientDefaultBoardCfgRmRange                                     
7000c151  MMCSD_init                                                                    
7000c1e1  MMCSD_parseCIDEmmc                                                            
7000c271  OSPI_init                                                                     
7000c301  Sciclient_rmIrOutpIsFree                                                      
7000c381  Bootloader_socOpenFirewalls                                                   
7000c401  Sciclient_pmGetModuleClkNumParent                                             
7000c581  System_init                                                                   
7000c601  Udma_rmAllocVintrBit                                                          
7000c6f8  snprintf                                                                      
7000c7e1  OSPI_phyResyncDLL                                                             
7000c851  SOC_moduleClockEnable                                                         
7000c931  LPDDR4_Start                                                                  
7000c9a1  MMCSD_parseCIDSd                                                              
7000ca11  Sciclient_pmGetModuleState                                                    
7000ca81  ClockP_timerTickIsr                                                           
7000caec  atoi                                                                          
7000cc41  AddrTranslateP_getLocalAddr                                                   
7000cd21  Sciclient_pmGetModuleClkParent                                                
7000ce01  OSPI_close                                                                    
7000ce71  Sciclient_pmModuleGetClkStatus                                                
7000cee1  UdmaUtils_makeTrpd                                                            
7000cf51  Board_flashOpen                                                               
7000cfc1  OSPI_setXferOpCodes                                                           
7000d031  Udma_ringFlushRawLcdma                                                        
7000d0a1  Udma_ringFree                                                                 
7000d111  Udma_ringQueueRaw                                                             
7000d181  Sciclient_pmSetModuleClkParent                                                
7000d1e1  Sciclient_waitForBootNotification                                             
7000d241  OSPI_phyFindRxHigh                                                            
7000d2a1  OSPI_phyFindRxLow                                                             
7000d301  OSPI_phyFindTxHigh                                                            
7000d361  OSPI_phyFindTxLow                                                             
7000d3c1  Sciclient_pmModuleClkRequest                                                  
7000d421  Udma_rmFreeMappedRing                                                         
7000d4e1  Udma_rmAllocEvent                                                             
7000d541  Udma_rmAllocVintr                                                             
7000d5a1  _DebugP_assert                                                                
7000d5fc  __TI_auto_init_nobinit_nopinit                                                
7000d661  Udma_ringDequeueRaw                                                           
7000d6c1  LPDDR4_ReadReg                                                                
7000d781  UART_dmaDisableChannel                                                        
7000d7e1  Udma_rmFreeVintrBit                                                           
7000d891  Flash_offsetToBlkPage                                                         
7000d8f1  CSL_intaggrIsIntrPending                                                      
7000d951  UART_dmaClose                                                                 
7000d9b1  MMCSD_close                                                                   
7000da11  Sciclient_pmSetModuleState                                                    
7000da71  CSL_intaggrClrIntr                                                            
7000db11  Sciclient_getContext                                                          
7000dbb1  ClockP_getTimeUsec                                                            
7000dc01  Drivers_mmcsdOpen                                                             
7000dc51  Drivers_ospiOpen                                                              
7000dca1  Drivers_uartOpen                                                              
7000dcf1  OSPI_phyReadAttackVector                                                      
7000dd41  Sciclient_rmGetResourceRange                                                  
7000dd91  Udma_ringSetDoorBellLcdma                                                     
7000dde1  ClockP_construct                                                              
7000de31  OSPI_phySetRdDelayTxRxDLL                                                     
7000de81  UdmaChTxPrms_init                                                             
7000ded1  Udma_rmFreeMappedRxCh                                                         
7000df21  Udma_rmFreeMappedTxCh                                                         
7000df68  memccpy                                                                       
7000e001  UdmaFlowPrms_init                                                             
7000e051  _inbyte                                                                       
7000e0a1  ClockP_stop                                                                   
7000e0f1  LPDDR4_WritePhyIndepConfig                                                    
7000e141  Sciclient_pmSetModuleRst                                                      
7000e191  DDR_socEnableVttRegulator                                                     
7000e1e1  LPDDR4_WritePhyConfig                                                         
7000e231  OSPI_enablePhy                                                                
7000e281  Sciclient_rmPsilPair                                                          
7000e2d1  Sciclient_rmPsilUnpair                                                        
7000e321  UdmaChPrms_init                                                               
7000e371  UdmaChRxPrms_init                                                             
7000e3c1  Dpl_init                                                                      
7000e401  MMCSD_parseCSDEmmc                                                            
7000e441  Sciclient_firewallChangeOwnerInfo                                             
7000e481  Sciclient_firewallSetRegion                                                   
7000e4c1  Sciclient_rmIrqSetRaw                                                         
7000e501  Sciclient_rmRingCfg                                                           
7000e541  Sciclient_rmUdmapFlowCfg                                                      
7000e581  Sciclient_rmUdmapFlowSizeThreshCfg                                            
7000e5c1  Sciclient_rmUdmapRxChCfg                                                      
7000e601  Sciclient_rmUdmapTxChCfg                                                      
7000e641  SemaphoreP_constructBinary                                                    
7000e681  Udma_ringPrimeReadLcdma                                                       
7000e6c1  Udma_rmFreeBlkCopyCh                                                          
7000e701  Udma_rmFreeBlkCopyHcCh                                                        
7000e741  Udma_rmFreeBlkCopyUhcCh                                                       
7000e781  Udma_rmFreeEvent                                                              
7000e7c1  Udma_rmFreeIrIntr                                                             
7000e801  Udma_rmFreeRxCh                                                               
7000e841  Udma_rmFreeRxHcCh                                                             
7000e881  Udma_rmFreeRxUhcCh                                                            
7000e8c1  Udma_rmFreeTxCh                                                               
7000e901  Udma_rmFreeTxHcCh                                                             
7000e941  Udma_rmFreeTxUhcCh                                                            
7000e981  Udma_rmFreeVintr                                                              
7000e9c1  LPDDR4_WriteCtlConfig                                                         
7000ea01  SOC_controlModuleUnlockMMR                                                    
7000ea41  Udma_getMappedChRingAttributes                                                
7000eac1  SemaphoreP_constructMutex                                                     
7000eb01  UdmaEventPrms_init                                                            
7000eb41  Udma_ringFlushRaw                                                             
7000eb81  ClockP_destruct                                                               
7000ec01  OSPI_dmaOpen                                                                  
7000ec41  UART_dmaOpen                                                                  
7000ec81  Module_clockSetFrequency                                                      
7000ecc1  Sciclient_getCurrentContext                                                   
7000ed01  Udma_lcdmaRingaccMemOps                                                       
7000ed41  _DebugP_logZone                                                               
7000ed81  CSL_bcdmaGetCfg                                                               
7000edc1  CSL_pktdmaGetCfg                                                              
7000ee01  Flash_open                                                                    
7000ee81  _outbyte                                                                      
7000eec1  ClockP_start                                                                  
7000ef01  LPDDR4_EnablePIInitiator                                                      
7000ef41  LPDDR4_PollCtlIrq                                                             
7000ef81  OSPI_disablePhy                                                               
7000efc1  OSPI_setXferLines                                                             
7000f001  Udma_rmGetSharedResPrms                                                       
7000f041  Bootloader_xmodemTransmit                                                     
7000f081  ClockP_usleep                                                                 
7000f0c1  SemaphoreP_post                                                               
7000f101  Bootloader_xmodemReceive                                                      
7000f131  CSL_intaggrGetCfg                                                             
7000f161  Module_clockEnable                                                            
7000f1f1  MMCSD_getHandle                                                               
7000f281  UART_getHandle                                                                
7000f2b1  UdmaRingPrms_init                                                             
7000f2e1  Udma_chGetCqRingNum                                                           
7000f311  CSL_pktdmaGetRxRT                                                             
7000f341  CSL_pktdmaGetTxRT                                                             
7000f371  OSPI_getHandle                                                                
7000f3a1  OSPI_setDeviceSize                                                            
7000f3d1  SOC_controlModuleLockMMR                                                      
7000f401  Udma_phyToVirtFxn                                                             
7000f431  crc16_ccitt                                                                   
7000f491  Udma_chGetCqRingHandle                                                        
7000f4c1  Udma_chGetFqRingHandle                                                        
7000f4f1  Udma_ringGetForwardRingOccLcdma                                               
7000f521  Udma_ringGetReverseRingOccLcdma                                               
7000f551  CSL_bcdmaGetChanPeerReg                                                       
7000f581  MMCSD_parseSCRSd                                                              
7000f5b1  Udma_ringPrimeLcdma                                                           
7000f5e1  OSPI_dmaCopy                                                                  
7000f634  __aeabi_uldivmod                                                              
7000f691  CSL_bcdmaSetChanPeerReg                                                       
7000f6c1  OSPI_setNumAddrBytes                                                          
7000f6f1  Pinmux_init                                                                   
7000f721  Udma_virtToPhyFxn                                                             
7000f751  CSL_bcdmaTeardownRxChan                                                       
7000f771  CSL_bcdmaTeardownTxChan                                                       
7000f791  CSL_pktdmaSetRxRT                                                             
7000f7b1  CSL_pktdmaSetTxRT                                                             
7000f7d1  DebugP_logZoneEnable                                                          
7000f7f1  Flash_getAttrs                                                                
7000f811  Flash_getHandle                                                               
7000f831  UdmaUtils_makeTrpdTr15                                                        
7000f851  vprintf_                                                                      
7000f870  wcslen                                                                        
7000f891  Flash_read                                                                    
7000f8b1  Flash_write                                                                   
7000f8d1  OSPI_enableDacMode                                                            
7000f8f1  TimerP_Params_init                                                            
7000f911  Udma_ringDequeueRawLcdma                                                      
7000f931  Udma_ringGetNum                                                               
7000f951  Udma_ringQueueRawLcdma                                                        
7000f971  CSL_lcdma_ringaccPush64                                                       
7000f991  OSPI_setRdDataCaptureDelay                                                    
7000f9b1  UdmaUtils_getRingMemSize                                                      
7000f9d1  _system_pre_init                                                              
7000fa08  TI_memcpy_small                                                               
7000fa24  __aeabi_memset                                                                
7000fa24  __aeabi_memset4                                                               
7000fa24  __aeabi_memset8                                                               
7000fa34  __aeabi_memclr                                                                
7000fa34  __aeabi_memclr4                                                               
7000fa34  __aeabi_memclr8                                                               
7000fa41  CSL_pktdmaGetChanPeerReg                                                      
7000fa61  CSL_pktdmaSetChanPeerReg                                                      
7000fa81  UART_readInterruptDma                                                         
7000faa1  UART_writeInterruptDma                                                        
7000fac1  Udma_rmGetDefBoardCfgPrms                                                     
7000fae1  LPDDR4_Init                                                                   
7000fb01  OSPI_disablePhyPipeline                                                       
7000fb21  OSPI_dmaClose                                                                 
7000fb41  OSPI_enableDDR                                                                
7000fb61  OSPI_enableSDR                                                                
7000fb81  OSPI_setCmdDummyCycles                                                        
7000fba1  Sciclient_getDevId                                                            
7000fbc1  Udma_ringGetElementCntLcdma                                                   
7000fbe1  Udma_ringGetMemPtrLcdma                                                       
7000fc01  Udma_ringGetModeLcdma                                                         
7000fc21  Udma_ringGetRdIdxLcdma                                                        
7000fc41  Udma_ringGetWrIdxLcdma                                                        
7000fc58  TI_memset_small                                                               
7000fc71  CSL_bcdmaGetRxRT                                                              
7000fc91  CSL_bcdmaGetTxRT                                                              
7000fcb1  CSL_bcdmaSetRxRT                                                              
7000fcd1  CSL_bcdmaSetTxRT                                                              
7000fcf1  OSPI_ReadCmdParams_init                                                       
7000fd11  OSPI_WriteCmdParams_init                                                      
7000fd31  Flash_getPhyTuningOffset                                                      
7000fd51  OSPI_Transaction_init                                                         
7000fd71  OSPI_setReadDummyCycles                                                       
7000fd91  CSL_lcdma_ringaccGetReverseRingOcc                                            
7000fdb1  Drivers_open                                                                  
7000fdd1  Flash_eraseBlk                                                                
7000fdf1  MMCSD_getBlockSize                                                            
7000fe11  CSL_lcdma_ringaccIsTeardownComplete                                           
7000fe21  CSL_lcdma_ringaccPop64                                                        
7000fe31  LPDDR4_Probe                                                                  
7000fe41  OSPI_phyGetTuningData                                                         
7000fe51  OSPI_setDualOpCodeMode                                                        
7000fe61  TimerP_clearOverflowInt                                                       
7000fe71  Udma_rmTranslateCoreIntrInput                                                 
7000fe81  Udma_rmTranslateIrOutput                                                      
7000fe91  CSL_lcdma_ringaccGetForwardRingOcc                                            
7000fea1  CSL_lcdma_ringaccInitRingObj                                                  
7000feb1  Flash_close                                                                   
7000fec1  PowerClock_init                                                               
7000fed1  ClockP_getTicks                                                               
7000fee1  OSPI_getFlashDataBaseAddr                                                     
7000fef1  Sciclient_getSelfDevIdCore                                                    
7000ff01  CSL_secProxyGetDataAddr                                                       
7000ff11  ClockP_Params_init                                                            
7000ff21  ClockP_isActive                                                               
7000ff31  OSPI_setPhyEnableSuccess                                                      
7000ff41  TimerP_start                                                                  
7000ff71  OSPI_setCmdExtType                                                            
7000ff81  Udma_ringHandleClearRegsLcdma                                                 
7000ff91  CSL_pktdmaTeardownRxChan                                                      
7000ffa1  CSL_pktdmaTeardownTxChan                                                      
7000ffb1  OSPI_getXferLines                                                             
7000ffc1  OSPI_isDtrEnable                                                              
7000ffd1  OSPI_isPhyEnable                                                              
7000ffe1  Udma_rmAllocFreeRing                                                          
7000fff1  Board_driversOpen                                                             
70010001  Bootloader_socWaitForFWBoot                                                   
70010011  CPS_UncachedRead32                                                            
70010021  CPS_UncachedWrite32                                                           
70010031  ClockP_getTimerCount                                                          
70010041  ClockP_timerClearOverflowInt                                                  
70010051  Sciclient_rmIrqSet                                                            
70010061  Sciclient_rmIrqTranslateIaOutput                                              
70010071  TimerP_getCount                                                               
70010081  TimerP_getReloadCount                                                         
70010091  Udma_defaultVirtToPhyFxn                                                      
700100a1  Udma_isCacheCoherent                                                          
700100b0  __aeabi_idiv0                                                                 
700100c0  __aeabi_ldiv0                                                                 
700100f1  SemaphoreP_destruct                                                           
70010101  TaskP_yield                                                                   
70010111  Udma_defaultPhyToVirtFxn                                                      
70010121  Udma_rmFreeFreeRing                                                           
70010141  putchar_                                                                      
70010151  HwiP_enableInt                                                                
70010181  HwiP_disableInt                                                               
700101c1  HwiP_restoreInt                                                               
70010221  HwiP_clearInt                                                                 
70010241  HwiP_post                                                                     
70010271  HwiP_Params_init                                                              
70010291  HwiP_construct                                                                
700103e1  HwiP_destruct                                                                 
700104b1  HwiP_init                                                                     
70010581  HwiP_inISR                                                                    
700105a1  HwiP_irq_handler_c                                                            
70010631  HwiP_fiq_handler                                                              
700106e1  HwiP_reserved_handler                                                         
70010711  HwiP_undefined_handler                                                        
70010741  HwiP_svc_handler                                                              
70010771  HwiP_prefetch_abort_handler                                                   
700107a1  HwiP_data_abort_handler                                                       
700107d0  HwiP_irq_handler                                                              
70010848  HwiP_disable                                                                  
70010858  HwiP_disableFIQ                                                               
70010868  HwiP_enable                                                                   
70010878  HwiP_enableFIQ                                                                
70010888  HwiP_restore                                                                  
70010890  HwiP_enableVIC                                                                
700108a0  HwiP_disableVIC                                                               
700108b0  HwiP_getCPSR                                                                  
700108c0  CacheP_disableL1d                                                             
700108e8  CacheP_disableL1p                                                             
70010900  CacheP_enableL1d                                                              
70010918  CacheP_enableL1p                                                              
70010930  CacheP_invL1d                                                                 
70010968  CacheP_invL1p                                                                 
700109a4  CacheP_invL1dAll                                                              
700109ac  CacheP_invL1pAll                                                              
700109b4  CacheP_wb                                                                     
700109f0  CacheP_wbInv                                                                  
70010a2c  CacheP_wbAll                                                                  
70010ad4  CacheP_wbInvAll                                                               
70010aec  CacheP_wbInvAllAsm                                                            
70010b8c  CacheP_getEnabled                                                             
70010bc4  CacheP_getCacheLevelInfo                                                      
70010bd0  CacheP_configForceWrThru                                                      
70010bf0  CacheP_setDLFO                                                                
70010c01  CacheP_init                                                                   
70010c81  CacheP_disable                                                                
70010cc1  CacheP_enable                                                                 
70010ce1  CacheP_inv                                                                    
70010d21  MpuP_RegionAttrs_init                                                         
70010d31  MpuP_setRegion                                                                
70010de1  MpuP_enable                                                                   
70010e21  MpuP_disable                                                                  
70010e61  MpuP_isEnable                                                                 
70010e71  MpuP_init                                                                     
70010ed4  MpuP_disableAsm                                                               
70010eec  MpuP_disableBRAsm                                                             
70010efc  MpuP_enableAsm                                                                
70010f14  MpuP_enableBRAsm                                                              
70010f24  MpuP_isEnableAsm                                                              
70010f38  MpuP_setRegionAsm                                                             
70010f60  _c_int00_sbl                                                                  
70010f84  _c_int00                                                                      
70011061  _DebugP_assertNoLog                                                           
70011081  __mpu_init                                                                    
70011090  DDRSS_phyReg                                                                  
70011090  gUartDmaConfig                                                                
7001187c  DDRSS_ctlReg                                                                  
70011f18  DDRSS_phyIndepReg                                                             
7001247c  DDRSS_phyRegNum                                                               
70012872  DDRSS_ctlRegNum                                                               
70012bc0  DDRSS_phyIndepRegNum                                                          
70012e72  vint_usage_count_DMASS0_INTAGGR_0                                             
70013270  gRmIrInstances                                                                
700132d0  gUdmaRmSharedResPrms                                                          
70013328  gUartParams                                                                   
7001337c  gMpuRegionConfig                                                              
7001341c  gFlashNorXspiDeviceDefines_S28HS512T                                          
700134d0  gSocModulesClockFrequency                                                     
70013500  gFlashNorXspiAttrs_S28HS512T                                                  
70013528  gPhyTuneWindowParamsGTE133                                                    
70013550  gPhyTuneWindowParamsLT133                                                     
70013598  gRmIaInstances                                                                
700135b8  gSciclientSecProxyCfg                                                         
700135d8  gSocModules                                                                   
700135f8  gOspiUdma0Args                                                                
70013614  gClockConfig                                                                  
70013628  gFlashNorXspiFxns                                                             
70013650  gFlashConfig                                                                  
70013670  gAddrTranslateConfig                                                          
7001367c  gMpuConfig                                                                    
70013688  gOspiDmaUdmaFxns                                                              
70013694  gCacheConfig                                                                  
7001369c  gMmcsdConfig                                                                  
700136a4  gMmcsdParams                                                                  
700136ac  gOspiConfig                                                                   
700136b4  gOspiDmaConfig                                                                
700136cc  gUartConfig                                                                   
700136d4  __aeabi_errno                                                                 
700136d8  gCacheL1dCacheLineSize                                                        
700136dc  gCacheL1pCacheLineSize                                                        
700136e0  gDebugLogZone                                                                 
700136e4  gFlashConfigNum                                                               
700136e8  gHwiConfig                                                                    
700136ec  gMmcsdConfigNum                                                               
700136f0  gOspiConfigNum                                                                
700136f4  gOspiDmaConfigNum                                                             
700136f8  gOspiParams                                                                   
700136fc  gPhyTuneWindowParams                                                          
70013714  gUartConfigNum                                                                
70013718  gUartDmaConfigNum                                                             
70013920  gUdmaRmDefBoardCfg_Pktdma                                                     
70013c68  gUdmaTxMappedChRingAttributes                                                 
70014008  gSciclientMap                                                                 
70014238  CMP_EVENT_INTROUTER0_outp_0_15_to_GICSS0_spi_48_63                            
70014240  __aeabi_ctype_table_                                                          
70014240  __aeabi_ctype_table_C                                                         
70014654  gUdmaRxMappedChRingAttributes                                                 
700146f0  gUdmaRmDefBoardCfg_Bcdma                                                      
700148d0  tisci_if_TIMESYNC_EVENT_INTROUTER0                                            
700149f8  gRmIrqTree                                                                    
70014bb4  tisci_if_MAIN_GPIOMUX_INTROUTER0                                              
70014c18  tisci_if_DMASS0_INTAGGR_0                                                     
70014ca0  tisci_if_MCU_MCU_GPIOMUX_INTROUTER0                                           
70014d08  tisci_if_CPTS0                                                                
70014d28  tisci_if_PRU_ICSSG0                                                           
70014d44  tisci_if_PRU_ICSSG1                                                           
70014d78  tisci_if_CMP_EVENT_INTROUTER0                                                 
70014d90  tisci_if_PCIE0                                                                
70014db8  tisci_if_CPSW0                                                                
70014dc8  CMP_EVENT_INTROUTER0_outp_16_23_to_R5FSS0_CORE0_intr_48_55                    
70014dd0  CMP_EVENT_INTROUTER0_outp_16_23_to_R5FSS0_CORE1_intr_48_55                    
70014dd8  CMP_EVENT_INTROUTER0_outp_24_31_to_R5FSS1_CORE0_intr_48_55                    
70014de0  CMP_EVENT_INTROUTER0_outp_24_31_to_R5FSS1_CORE1_intr_48_55                    
70014de8  CMP_EVENT_INTROUTER0_outp_32_39_to_DMASS0_INTAGGR_0_intaggr_levi_pend_0_7     
70014df0  CPSW0_cpts_comp_0_0_to_CMP_EVENT_INTROUTER0_in_80_80                          
70014df8  CPSW0_cpts_genf0_1_1_to_TIMESYNC_EVENT_INTROUTER0_in_21_21                    
70014e00  CPSW0_cpts_genf1_2_2_to_TIMESYNC_EVENT_INTROUTER0_in_22_22                    
70014e08  CPSW0_cpts_sync_3_3_to_TIMESYNC_EVENT_INTROUTER0_in_34_34                     
70014e10  CPTS0_cpts_comp_0_0_to_CMP_EVENT_INTROUTER0_in_82_82                          
70014e18  CPTS0_cpts_genf0_1_1_to_TIMESYNC_EVENT_INTROUTER0_in_16_16                    
70014e20  CPTS0_cpts_genf1_2_2_to_TIMESYNC_EVENT_INTROUTER0_in_17_17                    
70014e28  CPTS0_cpts_genf2_3_3_to_TIMESYNC_EVENT_INTROUTER0_in_18_18                    
70014e30  CPTS0_cpts_genf3_4_4_to_TIMESYNC_EVENT_INTROUTER0_in_19_19                    
70014e38  CPTS0_cpts_genf4_5_5_to_TIMESYNC_EVENT_INTROUTER0_in_20_20                    
70014e40  CPTS0_cpts_genf5_6_6_to_TIMESYNC_EVENT_INTROUTER0_in_24_24                    
70014e48  CPTS0_cpts_sync_7_7_to_TIMESYNC_EVENT_INTROUTER0_in_35_35                     
70014e50  DMASS0_INTAGGR_0_intaggr_vintr_pend_0_39_to_GICSS0_spi_64_103                 
70014e58  DMASS0_INTAGGR_0_intaggr_vintr_pend_120_127_to_R5FSS1_CORE0_intr_8_15         
70014e60  DMASS0_INTAGGR_0_intaggr_vintr_pend_128_135_to_R5FSS1_CORE1_intr_8_15         
70014e68  DMASS0_INTAGGR_0_intaggr_vintr_pend_152_159_to_PRU_ICSSG0_pr1_slv_intr_16_23  
70014e70  DMASS0_INTAGGR_0_intaggr_vintr_pend_160_167_to_PRU_ICSSG1_pr1_slv_intr_16_23  
70014e78  DMASS0_INTAGGR_0_intaggr_vintr_pend_168_183_to_MCU_M4FSS0_CORE0_nvic_32_47    
70014e80  DMASS0_INTAGGR_0_intaggr_vintr_pend_40_71_to_R5FSS0_CORE0_intr_64_95          
70014e88  DMASS0_INTAGGR_0_intaggr_vintr_pend_40_71_to_R5FSS0_CORE1_intr_64_95          
70014e90  DMASS0_INTAGGR_0_intaggr_vintr_pend_72_79_to_R5FSS0_CORE0_intr_8_15           
70014e98  DMASS0_INTAGGR_0_intaggr_vintr_pend_80_87_to_R5FSS0_CORE1_intr_8_15           
70014ea0  DMASS0_INTAGGR_0_intaggr_vintr_pend_88_119_to_R5FSS1_CORE0_intr_64_95         
70014ea8  DMASS0_INTAGGR_0_intaggr_vintr_pend_88_119_to_R5FSS1_CORE1_intr_64_95         
70014eb0  EPWM0_epwm_synco_o_0_0_to_TIMESYNC_EVENT_INTROUTER0_in_39_39                  
70014eb8  EPWM3_epwm_synco_o_0_0_to_TIMESYNC_EVENT_INTROUTER0_in_40_40                  
70014ec0  EPWM6_epwm_synco_o_0_0_to_TIMESYNC_EVENT_INTROUTER0_in_41_41                  
70014ec8  GPIO0_gpio_0_89_to_MAIN_GPIOMUX_INTROUTER0_in_0_89                            
70014ed0  GPIO0_gpio_bank_90_98_to_MAIN_GPIOMUX_INTROUTER0_in_190_198                   
70014ed8  GPIO1_gpio_0_89_to_MAIN_GPIOMUX_INTROUTER0_in_90_179                          
70014ee0  GPIO1_gpio_bank_90_98_to_MAIN_GPIOMUX_INTROUTER0_in_180_188                   
70014ee8  GPMC0_gpmc_sdmareq_0_0_to_DMASS0_INTAGGR_0_intaggr_levi_pend_29_29            
70014ef0  GTC0_gtc_push_event_0_0_to_TIMESYNC_EVENT_INTROUTER0_in_36_36                 
70014ef8  MAIN_GPIOMUX_INTROUTER0_outp_0_15_to_GICSS0_spi_32_47                         
70014f00  MAIN_GPIOMUX_INTROUTER0_outp_0_15_to_R5FSS0_CORE0_intr_32_47                  
70014f08  MAIN_GPIOMUX_INTROUTER0_outp_0_15_to_R5FSS0_CORE1_intr_32_47                  
70014f10  MAIN_GPIOMUX_INTROUTER0_outp_0_15_to_R5FSS1_CORE0_intr_32_47                  
70014f18  MAIN_GPIOMUX_INTROUTER0_outp_0_15_to_R5FSS1_CORE1_intr_32_47                  
70014f20  MAIN_GPIOMUX_INTROUTER0_outp_16_17_to_DMASS0_INTAGGR_0_intaggr_levi_pend_24_25
70014f28  MAIN_GPIOMUX_INTROUTER0_outp_18_23_to_PRU_ICSSG0_pr1_iep0_cap_intr_req_4_9    
70014f30  MAIN_GPIOMUX_INTROUTER0_outp_18_23_to_PRU_ICSSG1_pr1_iep0_cap_intr_req_4_9    
70014f38  MAIN_GPIOMUX_INTROUTER0_outp_24_29_to_PRU_ICSSG0_pr1_iep1_cap_intr_req_10_15  
70014f40  MAIN_GPIOMUX_INTROUTER0_outp_24_29_to_PRU_ICSSG1_pr1_iep1_cap_intr_req_10_15  
70014f48  MAIN_GPIOMUX_INTROUTER0_outp_30_37_to_DMASS0_INTAGGR_0_intaggr_levi_pend_16_23
70014f50  MAIN_GPIOMUX_INTROUTER0_outp_38_45_to_PRU_ICSSG0_pr1_slv_intr_46_53           
70014f58  MAIN_GPIOMUX_INTROUTER0_outp_46_53_to_PRU_ICSSG1_pr1_slv_intr_46_53           
70014f60  MCU_GPIO0_gpio_0_29_to_MCU_MCU_GPIOMUX_INTROUTER0_in_0_29                     
70014f68  MCU_GPIO0_gpio_bank_30_31_to_MCU_MCU_GPIOMUX_INTROUTER0_in_30_31              
70014f70  MCU_MCU_GPIOMUX_INTROUTER0_outp_0_3_to_GICSS0_spi_104_107                     
70014f78  MCU_MCU_GPIOMUX_INTROUTER0_outp_0_3_to_R5FSS0_CORE0_intr_104_107              
70014f80  MCU_MCU_GPIOMUX_INTROUTER0_outp_0_3_to_R5FSS0_CORE1_intr_104_107              
70014f88  MCU_MCU_GPIOMUX_INTROUTER0_outp_0_3_to_R5FSS1_CORE0_intr_104_107              
70014f90  MCU_MCU_GPIOMUX_INTROUTER0_outp_0_3_to_R5FSS1_CORE1_intr_104_107              
70014f98  MCU_MCU_GPIOMUX_INTROUTER0_outp_4_7_to_MCU_M4FSS0_CORE0_nvic_0_3              
70014fa0  MCU_MCU_GPIOMUX_INTROUTER0_outp_8_11_to_MCU_ESM0_esm_pls_event0_88_91         
70014fa8  MCU_MCU_GPIOMUX_INTROUTER0_outp_8_11_to_MCU_ESM0_esm_pls_event1_92_95         
70014fb0  MCU_MCU_GPIOMUX_INTROUTER0_outp_8_11_to_MCU_ESM0_esm_pls_event2_96_99         
70014fb8  PCIE0_pcie_cpts_comp_0_0_to_CMP_EVENT_INTROUTER0_in_81_81                     
70014fc0  PCIE0_pcie_cpts_genf0_1_1_to_TIMESYNC_EVENT_INTROUTER0_in_23_23               
70014fc8  PCIE0_pcie_cpts_hw1_push_2_2_to_TIMESYNC_EVENT_INTROUTER0_in_37_37            
70014fd0  PCIE0_pcie_cpts_sync_3_3_to_TIMESYNC_EVENT_INTROUTER0_in_33_33                
70014fd8  PCIE0_pcie_ptm_valid_pulse_4_4_to_TIMESYNC_EVENT_INTROUTER0_in_38_38          
70014fe0  PRU_ICSSG0_pr1_edc0_sync0_out_0_0_to_TIMESYNC_EVENT_INTROUTER0_in_25_25       
70014fe8  PRU_ICSSG0_pr1_edc0_sync1_out_1_1_to_TIMESYNC_EVENT_INTROUTER0_in_26_26       
70014ff0  PRU_ICSSG0_pr1_edc1_sync0_out_2_2_to_TIMESYNC_EVENT_INTROUTER0_in_27_27       
70014ff8  PRU_ICSSG0_pr1_edc1_sync1_out_3_3_to_TIMESYNC_EVENT_INTROUTER0_in_28_28       
70015000  PRU_ICSSG0_pr1_host_intr_req_4_11_to_CMP_EVENT_INTROUTER0_in_0_7              
70015008  PRU_ICSSG0_pr1_iep0_cmp_intr_req_12_27_to_CMP_EVENT_INTROUTER0_in_16_31       
70015010  PRU_ICSSG0_pr1_iep1_cmp_intr_req_28_43_to_CMP_EVENT_INTROUTER0_in_32_47       
70015018  PRU_ICSSG1_pr1_edc0_sync0_out_0_0_to_TIMESYNC_EVENT_INTROUTER0_in_29_29       
70015020  PRU_ICSSG1_pr1_edc0_sync1_out_1_1_to_TIMESYNC_EVENT_INTROUTER0_in_30_30       
70015028  PRU_ICSSG1_pr1_edc1_sync0_out_2_2_to_TIMESYNC_EVENT_INTROUTER0_in_31_31       
70015030  PRU_ICSSG1_pr1_edc1_sync1_out_3_3_to_TIMESYNC_EVENT_INTROUTER0_in_32_32       
70015038  PRU_ICSSG1_pr1_host_intr_req_4_11_to_CMP_EVENT_INTROUTER0_in_8_15             
70015040  PRU_ICSSG1_pr1_iep0_cmp_intr_req_12_27_to_CMP_EVENT_INTROUTER0_in_48_63       
70015048  PRU_ICSSG1_pr1_iep1_cmp_intr_req_28_43_to_CMP_EVENT_INTROUTER0_in_64_79       
70015050  TIMER0_timer_pwm_0_0_to_TIMESYNC_EVENT_INTROUTER0_in_0_0                      
70015058  TIMER1_timer_pwm_0_0_to_TIMESYNC_EVENT_INTROUTER0_in_1_1                      
70015060  TIMER2_timer_pwm_0_0_to_TIMESYNC_EVENT_INTROUTER0_in_2_2                      
70015068  TIMER3_timer_pwm_0_0_to_TIMESYNC_EVENT_INTROUTER0_in_3_3                      
70015070  TIMESYNC_EVENT_INTROUTER0_outl_0_7_to_DMASS0_INTAGGR_0_intaggr_levi_pend_8_15 
70015078  TIMESYNC_EVENT_INTROUTER0_outl_10_10_to_PRU_ICSSG0_pr1_edc1_latch0_in_2_2     
70015080  TIMESYNC_EVENT_INTROUTER0_outl_11_11_to_PRU_ICSSG0_pr1_edc1_latch1_in_3_3     
70015088  TIMESYNC_EVENT_INTROUTER0_outl_12_12_to_PRU_ICSSG1_pr1_edc0_latch0_in_0_0     
70015090  TIMESYNC_EVENT_INTROUTER0_outl_13_13_to_PRU_ICSSG1_pr1_edc0_latch1_in_1_1     
70015098  TIMESYNC_EVENT_INTROUTER0_outl_14_14_to_PRU_ICSSG1_pr1_edc1_latch0_in_2_2     
700150a0  TIMESYNC_EVENT_INTROUTER0_outl_15_15_to_PRU_ICSSG1_pr1_edc1_latch1_in_3_3     
700150a8  TIMESYNC_EVENT_INTROUTER0_outl_16_16_to_CPTS0_cpts_hw1_push_0_0               
700150b0  TIMESYNC_EVENT_INTROUTER0_outl_17_17_to_CPTS0_cpts_hw2_push_1_1               
700150b8  TIMESYNC_EVENT_INTROUTER0_outl_18_18_to_CPTS0_cpts_hw3_push_2_2               
700150c0  TIMESYNC_EVENT_INTROUTER0_outl_19_19_to_CPTS0_cpts_hw4_push_3_3               
700150c8  TIMESYNC_EVENT_INTROUTER0_outl_20_20_to_CPTS0_cpts_hw5_push_4_4               
700150d0  TIMESYNC_EVENT_INTROUTER0_outl_21_21_to_CPTS0_cpts_hw6_push_5_5               
700150d8  TIMESYNC_EVENT_INTROUTER0_outl_22_22_to_CPTS0_cpts_hw7_push_6_6               
700150e0  TIMESYNC_EVENT_INTROUTER0_outl_23_23_to_CPTS0_cpts_hw8_push_7_7               
700150e8  TIMESYNC_EVENT_INTROUTER0_outl_29_29_to_PCIE0_pcie_cpts_hw2_push_0_0          
700150f0  TIMESYNC_EVENT_INTROUTER0_outl_30_30_to_CPSW0_cpts_hw1_push_0_0               
700150f8  TIMESYNC_EVENT_INTROUTER0_outl_31_31_to_CPSW0_cpts_hw2_push_1_1               
70015100  TIMESYNC_EVENT_INTROUTER0_outl_32_32_to_CPSW0_cpts_hw3_push_2_2               
70015108  TIMESYNC_EVENT_INTROUTER0_outl_33_33_to_CPSW0_cpts_hw4_push_3_3               
70015110  TIMESYNC_EVENT_INTROUTER0_outl_34_34_to_CPSW0_cpts_hw5_push_4_4               
70015118  TIMESYNC_EVENT_INTROUTER0_outl_35_35_to_CPSW0_cpts_hw6_push_5_5               
70015120  TIMESYNC_EVENT_INTROUTER0_outl_36_36_to_CPSW0_cpts_hw7_push_6_6               
70015128  TIMESYNC_EVENT_INTROUTER0_outl_37_37_to_CPSW0_cpts_hw8_push_7_7               
70015130  TIMESYNC_EVENT_INTROUTER0_outl_8_8_to_PRU_ICSSG0_pr1_edc0_latch0_in_0_0       
70015138  TIMESYNC_EVENT_INTROUTER0_outl_9_9_to_PRU_ICSSG0_pr1_edc0_latch1_in_1_1       
70015140  tisci_if_GPIO0                                                                
70015148  tisci_if_GPIO1                                                                
70015150  tisci_if_MCU_GPIO0                                                            
70015210  gRmIrqTreeCount                                                               
70015214  tisci_if_EPWM0                                                                
70015218  tisci_if_EPWM3                                                                
7001521c  tisci_if_EPWM6                                                                
70015220  tisci_if_GPMC0                                                                
70015224  tisci_if_GTC0                                                                 
70015228  tisci_if_TIMER0                                                               
7001522c  tisci_if_TIMER1                                                               
70015230  tisci_if_TIMER2                                                               
70015234  tisci_if_TIMER3                                                               
70080000  __BSS_START                                                                   
70080000  __start___llvm_prf_cnts                                                       
70080000  __stop___llvm_prf_cnts                                                        
70080000  gUniflashVerifyBuf                                                            
70088000  gHwiCtrl                                                                      
70089008  gUdmaDrvObj                                                                   
7008a410  gClockCtrl                                                                    
7008a614  gADMA2Desc                                                                    
7008a620  gFlashObject_S28HS512T                                                        
7008a62c  gFlashHandle                                                                  
7008a630  gMmcsdHandle                                                                  
7008a634  gOspiHandle                                                                   
7008a638  gUartHandle                                                                   
7008a680  __BSS_END                                                                     
7008a680  _sys_memory                                                                   
70092680  __stack                                                                       
70096680  __IRQ_STACK_START                                                             
70096680  __STACK_END                                                                   
70097680  __FIQ_STACK_START                                                             
70097680  __IRQ_STACK_END                                                               
70097780  __FIQ_STACK_END                                                               
70097780  __SVC_STACK_START                                                             
70097880  __ABORT_STACK_START                                                           
70097880  __SVC_STACK_END                                                               
70097980  __ABORT_STACK_END                                                             
70097980  __UNDEFINED_STACK_START                                                       
70097a80  __UNDEFINED_STACK_END                                                         
80000000  gUniflashFileBuf                                                              
ffffffff  __TI_pprof_out_hndl                                                           
ffffffff  __TI_prof_data_size                                                           
ffffffff  __TI_prof_data_start                                                          
ffffffff  __binit__                                                                     
ffffffff  binit                                                                         
UNDEFED   __TI_CINIT_Base                                                               
UNDEFED   __TI_CINIT_Limit                                                              
UNDEFED   __TI_Handler_Table_Base                                                       
UNDEFED   __TI_Handler_Table_Limit                                                      
UNDEFED   _system_post_cinit                                                            

[637 symbols]
